Archive member included because of file (symbol)

/usr/lib/w32api/libadvapi32.a(dykgs00245.o)
                              winmisc.o (_GetUserNameA@8)
/usr/lib/w32api/libadvapi32.a(dykgs00389.o)
                              winstore.o (_RegCreateKeyA@12)
/usr/lib/w32api/libadvapi32.a(dykgs00386.o)
                              winstore.o (_RegCloseKey@4)
/usr/lib/w32api/libadvapi32.a(dykgs00434.o)
                              winstore.o (_RegSetValueExA@24)
/usr/lib/w32api/libadvapi32.a(dykgs00412.o)
                              winstore.o (_RegOpenKeyA@12)
/usr/lib/w32api/libadvapi32.a(dykgs00423.o)
                              winstore.o (_RegQueryValueExA@24)
/usr/lib/w32api/libadvapi32.a(dykgs00393.o)
                              winstore.o (_RegDeleteKeyA@8)
/usr/lib/w32api/libadvapi32.a(dykgs00400.o)
                              winstore.o (_RegEnumKeyA@16)
/usr/lib/w32api/libadvapi32.a(dykgh.o)
                              /usr/lib/w32api/libadvapi32.a(dykgs00245.o) (__head_libadvapi32_a)
/usr/lib/w32api/libadvapi32.a(dykgt.o)
                              /usr/lib/w32api/libadvapi32.a(dykgh.o) (__libadvapi32_a_iname)
/usr/lib/w32api/libcomctl32.a(dkzhs00094.o)
                              winctrls.o (_MakeDragList@4)
/usr/lib/w32api/libcomctl32.a(dkzhs00093.o)
                              winctrls.o (_LBItemFromPt@16)
/usr/lib/w32api/libcomctl32.a(dkzhs00041.o)
                              winctrls.o (_DrawInsert@12)
/usr/lib/w32api/libcomctl32.a(dkzhs00091.o)
                              window.o (_InitCommonControls@0)
/usr/lib/w32api/libcomctl32.a(dkzhh.o)
                              /usr/lib/w32api/libcomctl32.a(dkzhs00094.o) (__head_libcomctl32_a)
/usr/lib/w32api/libcomctl32.a(dkzht.o)
                              /usr/lib/w32api/libcomctl32.a(dkzhh.o) (__libcomctl32_a_iname)
/usr/lib/w32api/libcomdlg32.a(dmycs00002.o)
                              winctrls.o (_ChooseFontA@4)
/usr/lib/w32api/libcomdlg32.a(dmycs00000.o)
                              winctrls.o (_ChooseColorA@4)
/usr/lib/w32api/libcomdlg32.a(dmycs00011.o)
                              winutils.o (_GetSaveFileNameA@4)
/usr/lib/w32api/libcomdlg32.a(dmycs00009.o)
                              winutils.o (_GetOpenFileNameA@4)
/usr/lib/w32api/libcomdlg32.a(dmych.o)
                              /usr/lib/w32api/libcomdlg32.a(dmycs00002.o) (__head_libcomdlg32_a)
/usr/lib/w32api/libcomdlg32.a(dmyct.o)
                              /usr/lib/w32api/libcomdlg32.a(dmych.o) (__libcomdlg32_a_iname)
/usr/lib/w32api/libgdi32.a(dyohs00034.o)
                              sizetip.o (_CreateCompatibleDC@4)
/usr/lib/w32api/libgdi32.a(dyohs00279.o)
                              sizetip.o (_SelectObject@8)
/usr/lib/w32api/libgdi32.a(dyohs00211.o)
                              sizetip.o (_GetTextExtentPoint32A@16)
/usr/lib/w32api/libgdi32.a(dyohs00070.o)
                              sizetip.o (_DeleteDC@4)
/usr/lib/w32api/libgdi32.a(dyohs00199.o)
                              sizetip.o (_GetStockObject@4)
/usr/lib/w32api/libgdi32.a(dyohs00067.o)
                              sizetip.o (_CreateSolidBrush@4)
/usr/lib/w32api/libgdi32.a(dyohs00261.o)
                              sizetip.o (_Rectangle@20)
/usr/lib/w32api/libgdi32.a(dyohs00321.o)
                              sizetip.o (_SetTextColor@8)
/usr/lib/w32api/libgdi32.a(dyohs00285.o)
                              sizetip.o (_SetBkColor@8)
/usr/lib/w32api/libgdi32.a(dyohs00337.o)
                              sizetip.o (_TextOutA@20)
/usr/lib/w32api/libgdi32.a(dyohs00073.o)
                              sizetip.o (_DeleteObject@4)
/usr/lib/w32api/libgdi32.a(dyohs00047.o)
                              sizetip.o (_CreateFontIndirectA@4)
/usr/lib/w32api/libgdi32.a(dyohs00146.o)
                              winctrls.o (_GetDeviceCaps@8)
/usr/lib/w32api/libgdi32.a(dyohs00304.o)
                              winctrls.o (_SetMapMode@8)
/usr/lib/w32api/libgdi32.a(dyohs00208.o)
                              winctrls.o (_GetTextExtentExPointA@28)
/usr/lib/w32api/libgdi32.a(dyohs00056.o)
                              window.o (_CreatePalette@4)
/usr/lib/w32api/libgdi32.a(dyohs00280.o)
                              window.o (_SelectPalette@12)
/usr/lib/w32api/libgdi32.a(dyohs00258.o)
                              window.o (_RealizePalette@4)
/usr/lib/w32api/libgdi32.a(dyohs00046.o)
                              window.o (_CreateFontA@56)
/usr/lib/w32api/libgdi32.a(dyohs00217.o)
                              window.o (_GetTextMetricsA@8)
/usr/lib/w32api/libgdi32.a(dyohs00183.o)
                              window.o (_GetObjectA@12)
/usr/lib/w32api/libgdi32.a(dyohs00339.o)
                              window.o (_TranslateCharsetInfo@12)
/usr/lib/w32api/libgdi32.a(dyohs00033.o)
                              window.o (_CreateCompatibleBitmap@12)
/usr/lib/w32api/libgdi32.a(dyohs00319.o)
                              window.o (_SetTextAlign@8)
/usr/lib/w32api/libgdi32.a(dyohs00286.o)
                              window.o (_SetBkMode@8)
/usr/lib/w32api/libgdi32.a(dyohs00102.o)
                              window.o (_ExtTextOutA@32)
/usr/lib/w32api/libgdi32.a(dyohs00190.o)
                              window.o (_GetPixel@12)
/usr/lib/w32api/libgdi32.a(dyohs00058.o)
                              window.o (_CreatePen@12)
/usr/lib/w32api/libgdi32.a(dyohs00232.o)
                              window.o (_MoveToEx@16)
/usr/lib/w32api/libgdi32.a(dyohs00229.o)
                              window.o (_LineTo@12)
/usr/lib/w32api/libgdi32.a(dyohs00103.o)
                              window.o (_ExtTextOutW@32)
/usr/lib/w32api/libgdi32.a(dyohs00136.o)
                              window.o (_GetCharacterPlacementW@24)
/usr/lib/w32api/libgdi32.a(dyohs00254.o)
                              window.o (_Polyline@12)
/usr/lib/w32api/libgdi32.a(dyohs00310.o)
                              window.o (_SetPixel@16)
/usr/lib/w32api/libgdi32.a(dyohs00130.o)
                              window.o (_GetCharWidth32W@16)
/usr/lib/w32api/libgdi32.a(dyohs00134.o)
                              window.o (_GetCharWidthW@16)
/usr/lib/w32api/libgdi32.a(dyohs00129.o)
                              window.o (_GetCharWidth32A@16)
/usr/lib/w32api/libgdi32.a(dyohs00131.o)
                              window.o (_GetCharWidthA@16)
/usr/lib/w32api/libgdi32.a(dyohs00309.o)
                              window.o (_SetPaletteEntries@16)
/usr/lib/w32api/libgdi32.a(dyohs00340.o)
                              window.o (_UnrealizeObject@4)
/usr/lib/w32api/libgdi32.a(dyohs00028.o)
                              window.o (_CreateBitmap@20)
/usr/lib/w32api/libgdi32.a(dyohs00225.o)
                              window.o (_IntersectClipRect@20)
/usr/lib/w32api/libgdi32.a(dyohs00096.o)
                              window.o (_ExcludeClipRect@20)
/usr/lib/w32api/libgdi32.a(dyohs00341.o)
                              window.o (_UpdateColors@4)
/usr/lib/w32api/libgdi32.a(dyohh.o)
                              /usr/lib/w32api/libgdi32.a(dyohs00034.o) (__head_libgdi32_a)
/usr/lib/w32api/libgdi32.a(dyoht.o)
                              /usr/lib/w32api/libgdi32.a(dyohh.o) (__libgdi32_a_iname)
/usr/lib/w32api/libimm32.a(dasfs00025.o)
                              window.o (_ImmGetContext@4)
/usr/lib/w32api/libimm32.a(dasfs00065.o)
                              window.o (_ImmSetCompositionWindow@8)
/usr/lib/w32api/libimm32.a(dasfs00059.o)
                              window.o (_ImmReleaseContext@8)
/usr/lib/w32api/libimm32.a(dasfs00061.o)
                              window.o (_ImmSetCompositionFontA@8)
/usr/lib/w32api/libimm32.a(dasfs00023.o)
                              window.o (_ImmGetCompositionStringW@16)
/usr/lib/w32api/libimm32.a(dasfh.o)
                              /usr/lib/w32api/libimm32.a(dasfs00025.o) (__head_libimm32_a)
/usr/lib/w32api/libimm32.a(dasft.o)
                              /usr/lib/w32api/libimm32.a(dasfh.o) (__libimm32_a_iname)
/usr/lib/w32api/libshell32.a(dsdfs00143.o)
                              windlg.o (_ShellExecuteA@24)
/usr/lib/w32api/libshell32.a(dsdfh.o)
                              /usr/lib/w32api/libshell32.a(dsdfs00143.o) (__head_libshell32_a)
/usr/lib/w32api/libshell32.a(dsdft.o)
                              /usr/lib/w32api/libshell32.a(dsdfh.o) (__libshell32_a_iname)
/usr/lib/w32api/libuser32.a(dwxfs00133.o)
                              sizetip.o (_DefWindowProcA@16)
/usr/lib/w32api/libuser32.a(dwxfs00568.o)
                              sizetip.o (_SetWindowPos@28)
/usr/lib/w32api/libuser32.a(dwxfs00368.o)
                              sizetip.o (_InvalidateRect@12)
/usr/lib/w32api/libuser32.a(dwxfs00011.o)
                              sizetip.o (_BeginPaint@8)
/usr/lib/w32api/libuser32.a(dwxfs00235.o)
                              sizetip.o (_GetClientRect@8)
/usr/lib/w32api/libuser32.a(dwxfs00349.o)
                              sizetip.o (_GetWindowTextLengthA@4)
/usr/lib/w32api/libuser32.a(dwxfs00348.o)
                              sizetip.o (_GetWindowTextA@12)
/usr/lib/w32api/libuser32.a(dwxfs00183.o)
                              sizetip.o (_EndPaint@8)
/usr/lib/w32api/libuser32.a(dwxfs00346.o)
                              sizetip.o (_GetWindowRect@8)
/usr/lib/w32api/libuser32.a(dwxfs00089.o)
                              sizetip.o (_CreateWindowExA@48)
/usr/lib/w32api/libuser32.a(dwxfs00581.o)
                              sizetip.o (_ShowWindow@8)
/usr/lib/w32api/libuser32.a(dwxfs00322.o)
                              sizetip.o (_GetSysColor@4)
/usr/lib/w32api/libuser32.a(dwxfs00587.o)
                              sizetip.o (_SystemParametersInfoA@16)
/usr/lib/w32api/libuser32.a(dwxfs00570.o)
                              sizetip.o (_SetWindowTextA@8)
/usr/lib/w32api/libuser32.a(dwxfs00476.o)
                              sizetip.o (_RegisterClassA@4)
/usr/lib/w32api/libuser32.a(dwxfs00143.o)
                              sizetip.o (_DestroyWindow@4)
/usr/lib/w32api/libuser32.a(dwxfs00224.o)
                              terminal.o (_GetCaretBlinkTime@0)
/usr/lib/w32api/libuser32.a(dwxfs00504.o)
                              winctrls.o (_SendMessageA@16)
/usr/lib/w32api/libuser32.a(dwxfs00423.o)
                              winctrls.o (_MapDialogRect@8)
/usr/lib/w32api/libuser32.a(dwxfs00247.o)
                              winctrls.o (_GetDC@4)
/usr/lib/w32api/libuser32.a(dwxfs00490.o)
                              winctrls.o (_ReleaseDC@8)
/usr/lib/w32api/libuser32.a(dwxfs00501.o)
                              winctrls.o (_SendDlgItemMessageA@20)
/usr/lib/w32api/libuser32.a(dwxfs00565.o)
                              winctrls.o (_SetWindowLongA@12)
/usr/lib/w32api/libuser32.a(dwxfs00430.o)
                              winctrls.o (_MessageBeep@4)
/usr/lib/w32api/libuser32.a(dwxfs00056.o)
                              winctrls.o (_CheckRadioButton@16)
/usr/lib/w32api/libuser32.a(dwxfs00384.o)
                              winctrls.o (_IsDlgButtonChecked@8)
/usr/lib/w32api/libuser32.a(dwxfs00053.o)
                              winctrls.o (_CheckDlgButton@12)
/usr/lib/w32api/libuser32.a(dwxfs00526.o)
                              winctrls.o (_SetDlgItemTextA@12)
/usr/lib/w32api/libuser32.a(dwxfs00254.o)
                              winctrls.o (_GetDlgItemTextA@16)
/usr/lib/w32api/libuser32.a(dwxfs00487.o)
                              winctrls.o (_RegisterWindowMessageA@4)
/usr/lib/w32api/libuser32.a(dwxfs00162.o)
                              winctrls.o (_DrawEdge@16)
/usr/lib/w32api/libuser32.a(dwxfs00513.o)
                              winctrls.o (_SetCapture@4)
/usr/lib/w32api/libuser32.a(dwxfs00252.o)
                              winctrls.o (_GetDlgItem@8)
/usr/lib/w32api/libuser32.a(dwxfs00529.o)
                              winctrls.o (_SetFocus@4)
/usr/lib/w32api/libuser32.a(dwxfs00431.o)
                              winctrls.o (_MessageBoxA@16)
/usr/lib/w32api/libuser32.a(dwxfs00345.o)
                              windlg.o (_GetWindowPlacement@8)
/usr/lib/w32api/libuser32.a(dwxfs00567.o)
                              windlg.o (_SetWindowPlacement@8)
/usr/lib/w32api/libuser32.a(dwxfs00303.o)
                              windlg.o (_GetParent@4)
/usr/lib/w32api/libuser32.a(dwxfs00512.o)
                              windlg.o (_SetActiveWindow@4)
/usr/lib/w32api/libuser32.a(dwxfs00181.o)
                              windlg.o (_EndDialog@8)
/usr/lib/w32api/libuser32.a(dwxfs00179.o)
                              windlg.o (_EnableWindow@8)
/usr/lib/w32api/libuser32.a(dwxfs00146.o)
                              windlg.o (_DialogBoxParamA@20)
/usr/lib/w32api/libuser32.a(dwxfs00126.o)
                              windlg.o (_DefDlgProcA@16)
/usr/lib/w32api/libuser32.a(dwxfs00402.o)
                              windlg.o (_LoadCursorA@8)
/usr/lib/w32api/libuser32.a(dwxfs00079.o)
                              windlg.o (_CreateDialogParamA@20)
/usr/lib/w32api/libuser32.a(dwxfs00292.o)
                              windlg.o (_GetMessageA@16)
/usr/lib/w32api/libuser32.a(dwxfs00340.o)
                              windlg.o (_GetWindowLongA@8)
/usr/lib/w32api/libuser32.a(dwxfs00382.o)
                              windlg.o (_IsDialogMessageA@8)
/usr/lib/w32api/libuser32.a(dwxfs00148.o)
                              windlg.o (_DispatchMessageA@4)
/usr/lib/w32api/libuser32.a(dwxfs00465.o)
                              windlg.o (_PostQuitMessage@4)
/usr/lib/w32api/libuser32.a(dwxfs00489.o)
                              windlg.o (_ReleaseCapture@0)
/usr/lib/w32api/libuser32.a(dwxfs00223.o)
                              windlg.o (_GetCapture@0)
/usr/lib/w32api/libuser32.a(dwxfs00406.o)
                              windlg.o (_LoadIconA@8)
/usr/lib/w32api/libuser32.a(dwxfs00249.o)
                              windlg.o (_GetDesktopWindow@0)
/usr/lib/w32api/libuser32.a(dwxfs00442.o)
                              windlg.o (_MoveWindow@24)
/usr/lib/w32api/libuser32.a(dwxfs00136.o)
                              window.o (_DeleteMenu@12)
/usr/lib/w32api/libuser32.a(dwxfs00006.o)
                              window.o (_AppendMenuA@16)
/usr/lib/w32api/libuser32.a(dwxfs00362.o)
                              window.o (_InsertMenuA@20)
/usr/lib/w32api/libuser32.a(dwxfs00088.o)
                              window.o (_CreatePopupMenu@0)
/usr/lib/w32api/libuser32.a(dwxfs00516.o)
                              window.o (_SetClassLongA@12)
/usr/lib/w32api/libuser32.a(dwxfs00521.o)
                              window.o (_SetCursor@4)
/usr/lib/w32api/libuser32.a(dwxfs00578.o)
                              window.o (_ShowCursor@4)
/usr/lib/w32api/libuser32.a(dwxfs00272.o)
                              window.o (_GetKeyboardState@4)
/usr/lib/w32api/libuser32.a(dwxfs00397.o)
                              window.o (_KillTimer@8)
/usr/lib/w32api/libuser32.a(dwxfs00559.o)
                              window.o (_SetTimer@16)
/usr/lib/w32api/libuser32.a(dwxfs00395.o)
                              window.o (_IsZoomed@4)
/usr/lib/w32api/libuser32.a(dwxfs00515.o)
                              window.o (_SetCaretPos@8)
/usr/lib/w32api/libuser32.a(dwxfs00387.o)
                              window.o (_IsIconic@4)
/usr/lib/w32api/libuser32.a(dwxfs00550.o)
                              window.o (_SetScrollInfo@16)
/usr/lib/w32api/libuser32.a(dwxfs00452.o)
                              window.o (_OpenClipboard@4)
/usr/lib/w32api/libuser32.a(dwxfs00176.o)
                              window.o (_EmptyClipboard@0)
/usr/lib/w32api/libuser32.a(dwxfs00519.o)
                              window.o (_SetClipboardData@8)
/usr/lib/w32api/libuser32.a(dwxfs00061.o)
                              window.o (_CloseClipboard@0)
/usr/lib/w32api/libuser32.a(dwxfs00480.o)
                              window.o (_RegisterClipboardFormatA@4)
/usr/lib/w32api/libuser32.a(dwxfs00237.o)
                              window.o (_GetClipboardData@4)
/usr/lib/w32api/libuser32.a(dwxfs00213.o)
                              window.o (_FlashWindow@8)
/usr/lib/w32api/libuser32.a(dwxfs00073.o)
                              window.o (_CreateCaret@16)
/usr/lib/w32api/libuser32.a(dwxfs00256.o)
                              window.o (_GetDoubleClickTime@0)
/usr/lib/w32api/libuser32.a(dwxfs00324.o)
                              window.o (_GetSystemMenu@8)
/usr/lib/w32api/libuser32.a(dwxfs00087.o)
                              window.o (_CreateMenu@0)
/usr/lib/w32api/libuser32.a(dwxfs00268.o)
                              window.o (_GetKeyboardLayout@4)
/usr/lib/w32api/libuser32.a(dwxfs00530.o)
                              window.o (_SetForegroundWindow@4)
/usr/lib/w32api/libuser32.a(dwxfs00258.o)
                              window.o (_GetForegroundWindow@0)
/usr/lib/w32api/libuser32.a(dwxfs00617.o)
                              window.o (_UpdateWindow@4)
/usr/lib/w32api/libuser32.a(dwxfs00443.o)
                              window.o (_MsgWaitForMultipleObjects@20)
/usr/lib/w32api/libuser32.a(dwxfs00461.o)
                              window.o (_PeekMessageA@20)
/usr/lib/w32api/libuser32.a(dwxfs00391.o)
                              window.o (_IsWindow@4)
/usr/lib/w32api/libuser32.a(dwxfs00054.o)
                              window.o (_CheckMenuItem@12)
/usr/lib/w32api/libuser32.a(dwxfs00139.o)
                              window.o (_DestroyCaret@0)
/usr/lib/w32api/libuser32.a(dwxfs00177.o)
                              window.o (_EnableMenuItem@12)
/usr/lib/w32api/libuser32.a(dwxfs00604.o)
                              window.o (_TranslateMessage@4)
/usr/lib/w32api/libuser32.a(dwxfs00246.o)
                              window.o (_GetCursorPos@4)
/usr/lib/w32api/libuser32.a(dwxfs00295.o)
                              window.o (_GetMessageTime@0)
/usr/lib/w32api/libuser32.a(dwxfs00598.o)
                              window.o (_TrackPopupMenu@28)
/usr/lib/w32api/libuser32.a(dwxfs00463.o)
                              window.o (_PostMessageA@16)
/usr/lib/w32api/libuser32.a(dwxfs00577.o)
                              window.o (_ShowCaret@4)
/usr/lib/w32api/libuser32.a(dwxfs00531.o)
                              window.o (_SetKeyboardState@4)
/usr/lib/w32api/libuser32.a(dwxfs00594.o)
                              window.o (_ToAsciiEx@24)
/usr/lib/w32api/libuser32.a(dwxfs00356.o)
                              window.o (_HideCaret@4)
/usr/lib/w32api/libuser32.a(dwxfs00627.o)
                              winhelp.o (_WinHelpA@16)
/usr/lib/w32api/libuser32.a(dwxfs00434.o)
                              winutils.o (_MessageBoxIndirectA@4)
/usr/lib/w32api/libuser32.a(dwxfh.o)
                              /usr/lib/w32api/libuser32.a(dwxfs00133.o) (__head_libuser32_a)
/usr/lib/w32api/libuser32.a(dwxft.o)
                              /usr/lib/w32api/libuser32.a(dwxfh.o) (__libuser32_a_iname)
/usr/lib/w32api/libwinmm.a(dumfs00008.o)
                              window.o (_PlaySoundA@12)
/usr/lib/w32api/libwinmm.a(dumfh.o)
                              /usr/lib/w32api/libwinmm.a(dumfs00008.o) (__head_libwinmm_a)
/usr/lib/w32api/libwinmm.a(dumft.o)
                              /usr/lib/w32api/libwinmm.a(dumfh.o) (__libwinmm_a_iname)
/usr/lib/w32api/libwinspool.a(dwbds00078.o)
                              winprint.o (_EnumPrintersA@28)
/usr/lib/w32api/libwinspool.a(dwbds00102.o)
                              winprint.o (_OpenPrinterA@12)
/usr/lib/w32api/libwinspool.a(dwbds00126.o)
                              winprint.o (_StartDocPrinterA@12)
/usr/lib/w32api/libwinspool.a(dwbds00128.o)
                              winprint.o (_StartPagePrinter@4)
/usr/lib/w32api/libwinspool.a(dwbds00025.o)
                              winprint.o (_ClosePrinter@4)
/usr/lib/w32api/libwinspool.a(dwbds00059.o)
                              winprint.o (_EndDocPrinter@4)
/usr/lib/w32api/libwinspool.a(dwbds00130.o)
                              winprint.o (_WritePrinter@16)
/usr/lib/w32api/libwinspool.a(dwbds00060.o)
                              winprint.o (_EndPagePrinter@4)
/usr/lib/w32api/libwinspool.a(dwbdh.o)
                              /usr/lib/w32api/libwinspool.a(dwbds00078.o) (__head_libwinspool_a)
/usr/lib/w32api/libwinspool.a(dwbdt.o)
                              /usr/lib/w32api/libwinspool.a(dwbdh.o) (__libwinspool_a_iname)
/usr/lib/gcc/i686-pc-mingw32/3.4.4/../../../../i686-pc-mingw32/lib/libmingw32.a(CRTglob.o)
                              /usr/lib/gcc/i686-pc-mingw32/3.4.4/../../../../i686-pc-mingw32/lib/crt2.o (__CRT_glob)
/usr/lib/gcc/i686-pc-mingw32/3.4.4/../../../../i686-pc-mingw32/lib/libmingw32.a(CRTfmode.o)
                              /usr/lib/gcc/i686-pc-mingw32/3.4.4/../../../../i686-pc-mingw32/lib/crt2.o (__CRT_fmode)
/usr/lib/gcc/i686-pc-mingw32/3.4.4/../../../../i686-pc-mingw32/lib/libmingw32.a(txtmode.o)
                              /usr/lib/gcc/i686-pc-mingw32/3.4.4/../../../../i686-pc-mingw32/lib/crt2.o (__fmode)
/usr/lib/gcc/i686-pc-mingw32/3.4.4/../../../../i686-pc-mingw32/lib/libmingw32.a(main.o)
                              /usr/lib/gcc/i686-pc-mingw32/3.4.4/../../../../i686-pc-mingw32/lib/crt2.o (_main)
/usr/lib/gcc/i686-pc-mingw32/3.4.4/../../../../i686-pc-mingw32/lib/libmingw32.a(gccmain.o)
                              /usr/lib/gcc/i686-pc-mingw32/3.4.4/../../../../i686-pc-mingw32/lib/crt2.o (___main)
/usr/lib/gcc/i686-pc-mingw32/3.4.4/../../../../i686-pc-mingw32/lib/libmingw32.a(pseudo-reloc.o)
                              /usr/lib/gcc/i686-pc-mingw32/3.4.4/../../../../i686-pc-mingw32/lib/crt2.o (__pei386_runtime_relocator)
/usr/lib/gcc/i686-pc-mingw32/3.4.4/../../../../i686-pc-mingw32/lib/libmingw32.a(cpu_features.o)
                              /usr/lib/gcc/i686-pc-mingw32/3.4.4/../../../../i686-pc-mingw32/lib/crt2.o (___cpu_features_init)
/usr/lib/gcc/i686-pc-mingw32/3.4.4/../../../../i686-pc-mingw32/lib/libmingw32.a(CRT_fp10.o)
                              /usr/lib/gcc/i686-pc-mingw32/3.4.4/../../../../i686-pc-mingw32/lib/crt2.o (__fpreset)
/usr/lib/gcc/i686-pc-mingw32/3.4.4/../../../../i686-pc-mingw32/lib/libmingw32.a(pseudo-reloc-list.o)
                              /usr/lib/gcc/i686-pc-mingw32/3.4.4/../../../../i686-pc-mingw32/lib/libmingw32.a(pseudo-reloc.o) (___RUNTIME_PSEUDO_RELOC_LIST__)
/usr/lib/gcc/i686-pc-mingw32/3.4.4/libgcc.a(_chkstk.o)
                              config.o (__alloca)
/usr/lib/gcc/i686-pc-mingw32/3.4.4/libgcc.a(_ctors.o)
                              /usr/lib/gcc/i686-pc-mingw32/3.4.4/../../../../i686-pc-mingw32/lib/libmingw32.a(gccmain.o) (___CTOR_LIST__)
/usr/lib/gcc/i686-pc-mingw32/3.4.4/../../../../i686-pc-mingw32/lib/libmoldname.a(dctgs00084.o)
                              proxy.o (_strnicmp)
/usr/lib/gcc/i686-pc-mingw32/3.4.4/../../../../i686-pc-mingw32/lib/libmoldname.a(dctgh.o)
                              /usr/lib/gcc/i686-pc-mingw32/3.4.4/../../../../i686-pc-mingw32/lib/libmoldname.a(dctgs00084.o) (__head_libmoldname_a)
/usr/lib/gcc/i686-pc-mingw32/3.4.4/../../../../i686-pc-mingw32/lib/libmoldname.a(dctgt.o)
                              /usr/lib/gcc/i686-pc-mingw32/3.4.4/../../../../i686-pc-mingw32/lib/libmoldname.a(dctgh.o) (__libmoldname_a_iname)
/usr/lib/gcc/i686-pc-mingw32/3.4.4/../../../../i686-pc-mingw32/lib/libmsvcrt.a(doxfs00266.o)
                              /usr/lib/gcc/i686-pc-mingw32/3.4.4/../../../../i686-pc-mingw32/lib/crt2.o (__imp___iob)
/usr/lib/gcc/i686-pc-mingw32/3.4.4/../../../../i686-pc-mingw32/lib/libmsvcrt.a(doxfs00099.o)
                              /usr/lib/gcc/i686-pc-mingw32/3.4.4/../../../../i686-pc-mingw32/lib/crt2.o (__imp____set_app_type)
/usr/lib/gcc/i686-pc-mingw32/3.4.4/../../../../i686-pc-mingw32/lib/libmsvcrt.a(doxfs00590.o)
                              /usr/lib/gcc/i686-pc-mingw32/3.4.4/../../../../i686-pc-mingw32/lib/crt2.o (__imp__atexit)
/usr/lib/gcc/i686-pc-mingw32/3.4.4/../../../../i686-pc-mingw32/lib/libmsvcrt.a(doxfs00383.o)
                              /usr/lib/gcc/i686-pc-mingw32/3.4.4/../../../../i686-pc-mingw32/lib/crt2.o (__imp___onexit)
/usr/lib/gcc/i686-pc-mingw32/3.4.4/../../../../i686-pc-mingw32/lib/libmsvcrt.a(doxfs00147.o)
                              /usr/lib/gcc/i686-pc-mingw32/3.4.4/../../../../i686-pc-mingw32/lib/crt2.o (__cexit)
/usr/lib/gcc/i686-pc-mingw32/3.4.4/../../../../i686-pc-mingw32/lib/libmsvcrt.a(doxfs00077.o)
                              /usr/lib/gcc/i686-pc-mingw32/3.4.4/../../../../i686-pc-mingw32/lib/crt2.o (___p__environ)
/usr/lib/gcc/i686-pc-mingw32/3.4.4/../../../../i686-pc-mingw32/lib/libmsvcrt.a(doxfs00706.o)
                              /usr/lib/gcc/i686-pc-mingw32/3.4.4/../../../../i686-pc-mingw32/lib/crt2.o (_signal)
/usr/lib/gcc/i686-pc-mingw32/3.4.4/../../../../i686-pc-mingw32/lib/libmsvcrt.a(doxfs00079.o)
                              /usr/lib/gcc/i686-pc-mingw32/3.4.4/../../../../i686-pc-mingw32/lib/crt2.o (___p__fmode)
/usr/lib/gcc/i686-pc-mingw32/3.4.4/../../../../i686-pc-mingw32/lib/libmsvcrt.a(doxfs00426.o)
                              /usr/lib/gcc/i686-pc-mingw32/3.4.4/../../../../i686-pc-mingw32/lib/crt2.o (__setmode)
/usr/lib/gcc/i686-pc-mingw32/3.4.4/../../../../i686-pc-mingw32/lib/libmsvcrt.a(doxfs00055.o)
                              /usr/lib/gcc/i686-pc-mingw32/3.4.4/../../../../i686-pc-mingw32/lib/crt2.o (___getmainargs)
/usr/lib/gcc/i686-pc-mingw32/3.4.4/../../../../i686-pc-mingw32/lib/libmsvcrt.a(doxfs00684.o)
                              cmdline.o (_memset)
/usr/lib/gcc/i686-pc-mingw32/3.4.4/../../../../i686-pc-mingw32/lib/libmsvcrt.a(doxfs00611.o)
                              cmdline.o (_fgetc)
/usr/lib/gcc/i686-pc-mingw32/3.4.4/../../../../i686-pc-mingw32/lib/libmsvcrt.a(doxfs00592.o)
                              cmdline.o (_atoi)
/usr/lib/gcc/i686-pc-mingw32/3.4.4/../../../../i686-pc-mingw32/lib/libmsvcrt.a(doxfs00714.o)
                              cmdline.o (_strchr)
/usr/lib/gcc/i686-pc-mingw32/3.4.4/../../../../i686-pc-mingw32/lib/libmsvcrt.a(doxfs00721.o)
                              cmdline.o (_strlen)
/usr/lib/gcc/i686-pc-mingw32/3.4.4/../../../../i686-pc-mingw32/lib/libmsvcrt.a(doxfs00724.o)
                              cmdline.o (_strncpy)
/usr/lib/gcc/i686-pc-mingw32/3.4.4/../../../../i686-pc-mingw32/lib/libmsvcrt.a(doxfs00618.o)
                              cmdline.o (_fopen)
/usr/lib/gcc/i686-pc-mingw32/3.4.4/../../../../i686-pc-mingw32/lib/libmsvcrt.a(doxfs00682.o)
                              config.o (_memcpy)
/usr/lib/gcc/i686-pc-mingw32/3.4.4/../../../../i686-pc-mingw32/lib/libmsvcrt.a(doxfs00683.o)
                              config.o (_memmove)
/usr/lib/gcc/i686-pc-mingw32/3.4.4/../../../../i686-pc-mingw32/lib/libmsvcrt.a(doxfs00723.o)
                              config.o (_strncmp)
/usr/lib/gcc/i686-pc-mingw32/3.4.4/../../../../i686-pc-mingw32/lib/libmsvcrt.a(doxfs00717.o)
                              config.o (_strcpy)
/usr/lib/gcc/i686-pc-mingw32/3.4.4/../../../../i686-pc-mingw32/lib/libmsvcrt.a(doxfs00715.o)
                              config.o (_strcmp)
/usr/lib/gcc/i686-pc-mingw32/3.4.4/../../../../i686-pc-mingw32/lib/libmsvcrt.a(doxfs00137.o)
                              config.o (__assert)
/usr/lib/gcc/i686-pc-mingw32/3.4.4/../../../../i686-pc-mingw32/lib/libmsvcrt.a(doxfs00709.o)
                              config.o (_sprintf)
/usr/lib/gcc/i686-pc-mingw32/3.4.4/../../../../i686-pc-mingw32/lib/libmsvcrt.a(doxfs00591.o)
                              dialog.o (_atof)
/usr/lib/gcc/i686-pc-mingw32/3.4.4/../../../../i686-pc-mingw32/lib/libmsvcrt.a(doxfs00065.o)
                              ldisc.o (__imp____mb_cur_max)
/usr/lib/gcc/i686-pc-mingw32/3.4.4/../../../../i686-pc-mingw32/lib/libmsvcrt.a(doxfs00392.o)
                              ldisc.o (__imp___pctype)
/usr/lib/gcc/i686-pc-mingw32/3.4.4/../../../../i686-pc-mingw32/lib/libmsvcrt.a(doxfs00268.o)
                              ldisc.o (__isctype)
/usr/lib/gcc/i686-pc-mingw32/3.4.4/../../../../i686-pc-mingw32/lib/libmsvcrt.a(doxfs00742.o)
                              logging.o (_tolower)
/usr/lib/gcc/i686-pc-mingw32/3.4.4/../../../../i686-pc-mingw32/lib/libmsvcrt.a(doxfs00619.o)
                              logging.o (_fprintf)
/usr/lib/gcc/i686-pc-mingw32/3.4.4/../../../../i686-pc-mingw32/lib/libmsvcrt.a(doxfs00607.o)
                              logging.o (_fclose)
/usr/lib/gcc/i686-pc-mingw32/3.4.4/../../../../i686-pc-mingw32/lib/libmsvcrt.a(doxfs00720.o)
                              logging.o (_strftime)
/usr/lib/gcc/i686-pc-mingw32/3.4.4/../../../../i686-pc-mingw32/lib/libmsvcrt.a(doxfs00610.o)
                              logging.o (_fflush)
/usr/lib/gcc/i686-pc-mingw32/3.4.4/../../../../i686-pc-mingw32/lib/libmsvcrt.a(doxfs00633.o)
                              logging.o (_fwrite)
/usr/lib/gcc/i686-pc-mingw32/3.4.4/../../../../i686-pc-mingw32/lib/libmsvcrt.a(doxfs00625.o)
                              misc.o (_free)
/usr/lib/gcc/i686-pc-mingw32/3.4.4/../../../../i686-pc-mingw32/lib/libmsvcrt.a(doxfs00698.o)
                              misc.o (_realloc)
/usr/lib/gcc/i686-pc-mingw32/3.4.4/../../../../i686-pc-mingw32/lib/libmsvcrt.a(doxfs00676.o)
                              misc.o (_malloc)
/usr/lib/gcc/i686-pc-mingw32/3.4.4/../../../../i686-pc-mingw32/lib/libmsvcrt.a(doxfs00613.o)
                              misc.o (_fgets)
/usr/lib/gcc/i686-pc-mingw32/3.4.4/../../../../i686-pc-mingw32/lib/libmsvcrt.a(doxfs00490.o)
                              misc.o (__vsnprintf)
/usr/lib/gcc/i686-pc-mingw32/3.4.4/../../../../i686-pc-mingw32/lib/libmsvcrt.a(doxfs00731.o)
                              misc.o (_strtol)
/usr/lib/gcc/i686-pc-mingw32/3.4.4/../../../../i686-pc-mingw32/lib/libmsvcrt.a(doxfs00732.o)
                              misc.o (_strtoul)
/usr/lib/gcc/i686-pc-mingw32/3.4.4/../../../../i686-pc-mingw32/lib/libmsvcrt.a(doxfs00712.o)
                              proxy.o (_sscanf)
/usr/lib/gcc/i686-pc-mingw32/3.4.4/../../../../i686-pc-mingw32/lib/libmsvcrt.a(doxfs00695.o)
                              settings.o (_qsort)
/usr/lib/gcc/i686-pc-mingw32/3.4.4/../../../../i686-pc-mingw32/lib/libmsvcrt.a(doxfs00722.o)
                              settings.o (_strncat)
/usr/lib/gcc/i686-pc-mingw32/3.4.4/../../../../i686-pc-mingw32/lib/libmsvcrt.a(doxfs00730.o)
                              settings.o (_strtok)
/usr/lib/gcc/i686-pc-mingw32/3.4.4/../../../../i686-pc-mingw32/lib/libmsvcrt.a(doxfs00743.o)
                              terminal.o (_toupper)
/usr/lib/gcc/i686-pc-mingw32/3.4.4/../../../../i686-pc-mingw32/lib/libmsvcrt.a(doxfs00713.o)
                              terminal.o (_strcat)
/usr/lib/gcc/i686-pc-mingw32/3.4.4/../../../../i686-pc-mingw32/lib/libmsvcrt.a(doxfs00726.o)
                              windlg.o (_strrchr)
/usr/lib/gcc/i686-pc-mingw32/3.4.4/../../../../i686-pc-mingw32/lib/libmsvcrt.a(doxfs00604.o)
                              window.o (_exit)
/usr/lib/gcc/i686-pc-mingw32/3.4.4/../../../../i686-pc-mingw32/lib/libmsvcrt.a(doxfs00718.o)
                              winhelp.o (_strcspn)
/usr/lib/gcc/i686-pc-mingw32/3.4.4/../../../../i686-pc-mingw32/lib/libmsvcrt.a(doxfs00621.o)
                              winmisc.o (_fputs)
/usr/lib/gcc/i686-pc-mingw32/3.4.4/../../../../i686-pc-mingw32/lib/libmsvcrt.a(doxfs00637.o)
                              winmisc.o (_getenv)
/usr/lib/gcc/i686-pc-mingw32/3.4.4/../../../../i686-pc-mingw32/lib/libmsvcrt.a(doxfs00699.o)
                              winstore.o (_remove)
/usr/lib/gcc/i686-pc-mingw32/3.4.4/../../../../i686-pc-mingw32/lib/libmsvcrt.a(doxfh.o)
                              /usr/lib/gcc/i686-pc-mingw32/3.4.4/../../../../i686-pc-mingw32/lib/libmsvcrt.a(doxfs00266.o) (__head_libmsvcrt_a)
/usr/lib/gcc/i686-pc-mingw32/3.4.4/../../../../i686-pc-mingw32/lib/libmsvcrt.a(doxft.o)
                              /usr/lib/gcc/i686-pc-mingw32/3.4.4/../../../../i686-pc-mingw32/lib/libmsvcrt.a(doxfh.o) (__libmsvcrt_a_iname)
/usr/lib/w32api/libkernel32.a(dyuhs00739.o)
                              /usr/lib/gcc/i686-pc-mingw32/3.4.4/../../../../i686-pc-mingw32/lib/crt2.o (_SetUnhandledExceptionFilter@4)
/usr/lib/w32api/libkernel32.a(dyuhs00156.o)
                              /usr/lib/gcc/i686-pc-mingw32/3.4.4/../../../../i686-pc-mingw32/lib/crt2.o (_ExitProcess@4)
/usr/lib/w32api/libkernel32.a(dyuhs00423.o)
                              terminal.o (_GetTickCount@0)
/usr/lib/w32api/libkernel32.a(dyuhs00559.o)
                              winctrls.o (_MulDiv@12)
/usr/lib/w32api/libkernel32.a(dyuhs00226.o)
                              window.o (_GetCPInfo@8)
/usr/lib/w32api/libkernel32.a(dyuhs00351.o)
                              window.o (_GetOEMCP@0)
/usr/lib/w32api/libkernel32.a(dyuhs00327.o)
                              window.o (_GetLocaleInfoA@16)
/usr/lib/w32api/libkernel32.a(dyuhs00560.o)
                              window.o (_MultiByteToWideChar@24)
/usr/lib/w32api/libkernel32.a(dyuhs00512.o)
                              window.o (_IsDBCSLeadByteEx@8)
/usr/lib/w32api/libkernel32.a(dyuhs00448.o)
                              window.o (_GlobalAlloc@8)
/usr/lib/w32api/libkernel32.a(dyuhs00459.o)
                              window.o (_GlobalLock@4)
/usr/lib/w32api/libkernel32.a(dyuhs00467.o)
                              window.o (_GlobalUnlock@4)
/usr/lib/w32api/libkernel32.a(dyuhs00455.o)
                              window.o (_GlobalFree@4)
/usr/lib/w32api/libkernel32.a(dyuhs00814.o)
                              window.o (_WideCharToMultiByte@32)
/usr/lib/w32api/libkernel32.a(dyuhs00018.o)
                              window.o (_Beep@8)
/usr/lib/w32api/libkernel32.a(dyuhs00524.o)
                              window.o (_LoadLibraryA@4)
/usr/lib/w32api/libkernel32.a(dyuhs00364.o)
                              window.o (_GetProcAddress@8)
/usr/lib/w32api/libkernel32.a(dyuhs00335.o)
                              window.o (_GetModuleFileNameA@12)
/usr/lib/w32api/libkernel32.a(dyuhs00085.o)
                              window.o (_CreateProcessA@40)
/usr/lib/w32api/libkernel32.a(dyuhs00038.o)
                              window.o (_CloseHandle@4)
/usr/lib/w32api/libkernel32.a(dyuhs00069.o)
                              window.o (_CreateFileMappingA@24)
/usr/lib/w32api/libkernel32.a(dyuhs00546.o)
                              window.o (_MapViewOfFile@20)
/usr/lib/w32api/libkernel32.a(dyuhs00776.o)
                              window.o (_UnmapViewOfFile@4)
/usr/lib/w32api/libkernel32.a(dyuhs00616.o)
                              winhandl.o (_ReadFile@20)
/usr/lib/w32api/libkernel32.a(dyuhs00698.o)
                              winhandl.o (_SetEvent@4)
/usr/lib/w32api/libkernel32.a(dyuhs00810.o)
                              winhandl.o (_WaitForSingleObject@8)
/usr/lib/w32api/libkernel32.a(dyuhs00325.o)
                              winhandl.o (_GetLastError@0)
/usr/lib/w32api/libkernel32.a(dyuhs00352.o)
                              winhandl.o (_GetOverlappedResult@16)
/usr/lib/w32api/libkernel32.a(dyuhs00064.o)
                              winhandl.o (_CreateEventA@16)
/usr/lib/w32api/libkernel32.a(dyuhs00827.o)
                              winhandl.o (_WriteFile@20)
/usr/lib/w32api/libkernel32.a(dyuhs00091.o)
                              winhandl.o (_CreateThread@24)
/usr/lib/w32api/libkernel32.a(dyuhs00433.o)
                              winmisc.o (_GetVersionExA@4)
/usr/lib/w32api/libkernel32.a(dyuhs00009.o)
                              winmisc.o (_AllocConsole@0)
/usr/lib/w32api/libkernel32.a(dyuhs00388.o)
                              winmisc.o (_GetStdHandle@4)
/usr/lib/w32api/libkernel32.a(dyuhs00214.o)
                              winnet.o (_FreeLibrary@4)
/usr/lib/w32api/libkernel32.a(dyuhs00084.o)
                              winproxy.o (_CreatePipe@16)
/usr/lib/w32api/libkernel32.a(dyuhs00710.o)
                              winproxy.o (_SetHandleInformation@12)
/usr/lib/w32api/libkernel32.a(dyuhs00035.o)
                              winser.o (_ClearCommBreak@4)
/usr/lib/w32api/libkernel32.a(dyuhs00235.o)
                              winser.o (_GetCommState@8)
/usr/lib/w32api/libkernel32.a(dyuhs00655.o)
                              winser.o (_SetCommState@8)
/usr/lib/w32api/libkernel32.a(dyuhs00656.o)
                              winser.o (_SetCommTimeouts@8)
/usr/lib/w32api/libkernel32.a(dyuhs00068.o)
                              winser.o (_CreateFileA@28)
/usr/lib/w32api/libkernel32.a(dyuhs00652.o)
                              winser.o (_SetCommBreak@4)
/usr/lib/w32api/libkernel32.a(dyuhs00303.o)
                              winstore.o (_GetEnvironmentVariableA@12)
/usr/lib/w32api/libkernel32.a(dyuhs00443.o)
                              winstore.o (_GetWindowsDirectoryA@8)
/usr/lib/w32api/libkernel32.a(dyuhs00326.o)
                              wintime.o (_GetLocalTime@4)
/usr/lib/w32api/libkernel32.a(dyuhs00220.o)
                              winucs.o (_GetACP@0)
/usr/lib/w32api/libkernel32.a(dyuhs00281.o)
                              winutils.o (_GetCurrentDirectoryA@8)
/usr/lib/w32api/libkernel32.a(dyuhs00688.o)
                              winutils.o (_SetCurrentDirectoryA@4)
/usr/lib/w32api/libkernel32.a(dyuhs00237.o)
                              /usr/lib/gcc/i686-pc-mingw32/3.4.4/../../../../i686-pc-mingw32/lib/libmingw32.a(main.o) (_GetCommandLineA@0)
/usr/lib/w32api/libkernel32.a(dyuhs00386.o)
                              /usr/lib/gcc/i686-pc-mingw32/3.4.4/../../../../i686-pc-mingw32/lib/libmingw32.a(main.o) (_GetStartupInfoA@4)
/usr/lib/w32api/libkernel32.a(dyuhs00337.o)
                              /usr/lib/gcc/i686-pc-mingw32/3.4.4/../../../../i686-pc-mingw32/lib/libmingw32.a(main.o) (_GetModuleHandleA@4)
/usr/lib/w32api/libkernel32.a(dyuhh.o)
                              /usr/lib/w32api/libkernel32.a(dyuhs00739.o) (__head_libkernel32_a)
/usr/lib/w32api/libkernel32.a(dyuht.o)
                              /usr/lib/w32api/libkernel32.a(dyuhh.o) (__libkernel32_a_iname)

Allocating common symbols
Common symbol       size              file

p_WSAEnumNetworkEvents
                    0x10              winnet.o
p_WSAAsyncSelect    0x10              winnet.o
__DTOR_LIST__       0x10              /usr/lib/gcc/i686-pc-mingw32/3.4.4/libgcc.a(_ctors.o)
loaded_session      0x10              window.o
cfg                 0x2640            window.o
term                0x10              window.o
p_select            0x10              winnet.o
default_port        0x10              window.o
hinst               0x10              window.o
logbox              0x10              window.o
p_WSAGetLastError   0x10              winnet.o
flags               0x10              window.o
osVersion           0xa0              winmisc.o
__CTOR_LIST__       0x10              /usr/lib/gcc/i686-pc-mingw32/3.4.4/libgcc.a(_ctors.o)
hwnd                0x10              window.o
logctx              0x10              window.o
default_protocol    0x10              window.o
p_WSAEventSelect    0x10              winnet.o

Discarded input sections

 .text          0x00000000        0x0 /usr/lib/gcc/i686-pc-mingw32/3.4.4/../../../../i686-pc-mingw32/lib/libmsvcrt.a(doxfs00099.o)

Memory Configuration

Name             Origin             Length             Attributes
*default*        0x00000000         0xffffffff

Linker script and memory map

                0x00400000                __image_base__ = 0x400000
                0x00000000                __dll__ = 0x0
                0x00400000                ___ImageBase = 0x400000
                0x00001000                __section_alignment__ = 0x1000
                0x00000200                __file_alignment__ = 0x200
                0x00000004                __major_os_version__ = 0x4
                0x00000000                __minor_os_version__ = 0x0
                0x00000001                __major_image_version__ = 0x1
                0x00000000                __minor_image_version__ = 0x0
                0x00000004                __major_subsystem_version__ = 0x4
                0x00000000                __minor_subsystem_version__ = 0x0
                0x00000002                __subsystem__ = 0x2
                0x00200000                __size_of_stack_reserve__ = 0x200000
                0x00001000                __size_of_stack_commit__ = 0x1000
                0x00100000                __size_of_heap_reserve__ = 0x100000
                0x00001000                __size_of_heap_commit__ = 0x1000
                0x00000000                __loader_flags__ = 0x0
LOAD /usr/lib/gcc/i686-pc-mingw32/3.4.4/../../../../i686-pc-mingw32/lib/crt2.o
LOAD be_nos_s.o
LOAD cmdline.o
LOAD config.o
LOAD dialog.o
LOAD ldisc.o
LOAD ldiscucs.o
LOAD logging.o
LOAD minibidi.o
LOAD misc.o
LOAD nocproxy.o
LOAD pinger.o
LOAD proxy.o
LOAD puttytel.res.o
LOAD raw.o
LOAD rlogin.o
LOAD sercfg.o
LOAD settings.o
LOAD sizetip.o
LOAD telnet.o
LOAD terminal.o
LOAD testback.o
LOAD timing.o
LOAD tree234.o
LOAD version.o
LOAD wcwidth.o
LOAD wincfg.o
LOAD winctrls.o
LOAD windefs.o
LOAD windlg.o
LOAD window.o
LOAD winhandl.o
LOAD winhelp.o
LOAD winmisc.o
LOAD winnet.o
LOAD winprint.o
LOAD winproxy.o
LOAD winser.o
LOAD winstore.o
LOAD wintime.o
LOAD winucs.o
LOAD winutils.o
LOAD /usr/lib/w32api/libadvapi32.a
LOAD /usr/lib/w32api/libcomctl32.a
LOAD /usr/lib/w32api/libcomdlg32.a
LOAD /usr/lib/w32api/libgdi32.a
LOAD /usr/lib/w32api/libimm32.a
LOAD /usr/lib/w32api/libshell32.a
LOAD /usr/lib/w32api/libuser32.a
LOAD /usr/lib/w32api/libwinmm.a
LOAD /usr/lib/w32api/libwinspool.a
LOAD /usr/lib/gcc/i686-pc-mingw32/3.4.4/../../../../i686-pc-mingw32/lib/libmingw32.a
LOAD /usr/lib/gcc/i686-pc-mingw32/3.4.4/libgcc.a
LOAD /usr/lib/gcc/i686-pc-mingw32/3.4.4/../../../../i686-pc-mingw32/lib/libmoldname.a
LOAD /usr/lib/gcc/i686-pc-mingw32/3.4.4/../../../../i686-pc-mingw32/lib/libmingwex.a
LOAD /usr/lib/gcc/i686-pc-mingw32/3.4.4/../../../../i686-pc-mingw32/lib/libmsvcrt.a
LOAD /usr/lib/gcc/i686-pc-mingw32/3.4.4/../../../../i686-pc-mingw32/lib/libmingw32.a
LOAD /usr/lib/w32api/libgdi32.a
LOAD /usr/lib/w32api/libcomdlg32.a
LOAD /usr/lib/w32api/libuser32.a
LOAD /usr/lib/w32api/libkernel32.a
LOAD /usr/lib/w32api/libadvapi32.a
LOAD /usr/lib/w32api/libshell32.a
LOAD /usr/lib/gcc/i686-pc-mingw32/3.4.4/../../../../i686-pc-mingw32/lib/libmingw32.a
LOAD /usr/lib/gcc/i686-pc-mingw32/3.4.4/libgcc.a
LOAD /usr/lib/gcc/i686-pc-mingw32/3.4.4/../../../../i686-pc-mingw32/lib/libmoldname.a
LOAD /usr/lib/gcc/i686-pc-mingw32/3.4.4/../../../../i686-pc-mingw32/lib/libmingwex.a
LOAD /usr/lib/gcc/i686-pc-mingw32/3.4.4/../../../../i686-pc-mingw32/lib/libmsvcrt.a
                0x00000268                . = SIZEOF_HEADERS
                0x00001000                . = ALIGN (__section_alignment__)

.text           0x00401000    0x3f000
 *(.init)
 *(.text)
 .text          0x00401000      0x2e0 /usr/lib/gcc/i686-pc-mingw32/3.4.4/../../../../i686-pc-mingw32/lib/crt2.o
                0x004012a0                _WinMainCRTStartup
                0x00401280                _mainCRTStartup
                0x004012c0                _atexit
                0x004012d0                __onexit
 .text          0x004012e0       0x30 be_nos_s.o
                0x004012e0                _random_save_seed
                0x00401300                _noise_ultralight
                0x004012f0                _random_destroy_seed
 .text          0x00401310      0xfc0 cmdline.o
                0x004013b0                _cmdline_cleanup
                0x00402260                _cmdline_run_saved
                0x004013e0                _cmdline_get_passwd_input
                0x004014d0                _cmdline_process_param
 .text          0x004022d0     0x7860 config.o
                0x00402500                _config_protocolbuttons_handler
                0x004047d0                _setup_config_box
 .text          0x00409b30     0x1180 dialog.o
                0x00409b50                _ctrl_path_elements
                0x00409d60                _ctrl_free_box
                0x0040a680                _ctrl_draglist
                0x00409fc0                _ctrl_getset
                0x00409b40                _P
                0x0040a7d0                _ctrl_tabdelay
                0x0040a770                _ctrl_fontsel
                0x0040a240                _ctrl_columns
                0x0040a600                _ctrl_droplist
                0x00409bf0                _ctrl_new_box
                0x00409b30                _I
                0x0040ac40                _dlg_stdfontsel_handler
                0x0040a510                _ctrl_pushbutton
                0x0040a300                _ctrl_editbox
                0x0040a8c0                _dlg_stdradiobutton_handler
                0x0040a860                _ctrl_checkbox
                0x0040a580                _ctrl_listbox
                0x00409cf0                _ctrl_free_set
                0x00409ec0                _ctrl_settitle
                0x0040a700                _ctrl_filesel
                0x00409b80                _ctrl_path_compare
                0x0040a9b0                _dlg_stdcheckbox_handler
                0x00409e50                _ctrl_find_path
                0x0040a3e0                _ctrl_radiobuttons
                0x0040aa60                _dlg_stdeditbox_handler
                0x0040a810                _ctrl_text
                0x0040a370                _ctrl_combobox
                0x00409c40                _ctrl_free
                0x0040abc0                _dlg_stdfilesel_handler
                0x0040a120                _ctrl_alloc
 .text          0x0040acb0      0xd20 ldisc.o
                0x0040ae90                _ldisc_create
                0x0040af20                _ldisc_free
                0x0040af90                _ldisc_send
 .text          0x0040b9d0      0x250 ldiscucs.o
                0x0040bb60                _lpage_send
                0x0040b9d0                _luni_send
 .text          0x0040bc20      0xc00 logging.o
                0x0040bc50                _logfclose
                0x0040bd00                _log_free
                0x0040bd30                _logfopen
                0x0040c610                _logtraffic
                0x0040bc20                _logflush
                0x0040bc90                _log_init
                0x0040c570                _log_eventlog
                0x0040bfd0                _log_reconfig
                0x0040c1a0                _log_packet
 .text          0x0040c820     0x1900 minibidi.o
                0x0040c9c0                _is_rtl
                0x0040ca10                _getPreviousLevel
                0x0040c820                _findIndexOfRun
                0x0040c960                _getType
                0x0040d860                _do_bidi
                0x0040cdb0                _doMirror
                0x0040ca50                _do_shape
                0x0040c860                _flipThisRun
                0x0040c9e0                _setOverrideBits
 .text          0x0040e120      0xc10 misc.o
                0x0040eaa0                _free_prompts
                0x0040e1d0                _ctrlparse
                0x0040e120                _parse_blocksize
                0x0040ea00                _fgetline
                0x0040e320                _bufchain_init
                0x0040e7a0                _dupvprintf
                0x0040eb70                _debug_memdump
                0x0040e420                _safemalloc
                0x0040e4b0                _bufchain_add
                0x0040e640                _dupstr
                0x0040ed10                _cfg_dest
                0x0040e900                _bufchain_consume
                0x0040e9c0                _bufchain_clear
                0x0040ece0                _cfg_launchable
                0x0040e380                _bufchain_fetch
                0x0040eb30                _debug_printf
                0x0040e350                _bufchain_prefix
                0x0040e5a0                _dupcat
                0x0040e6f0                _saferealloc
                0x0040e690                _new_prompts
                0x0040e830                _dupprintf
                0x0040e850                _add_prompt
                0x0040e8e0                _safefree
                0x0040e290                _base64_encode_atom
                0x0040e340                _bufchain_size
 .text          0x0040ed30       0x90 nocproxy.o
                0x0040ed40                _proxy_socks5_handlechap
                0x0040ed30                _proxy_socks5_offerencryptedauth
                0x0040ed80                _proxy_socks5_selectchap
 .text          0x0040edc0      0x150 pinger.o
                0x0040eec0                _pinger_reconfig
                0x0040eef0                _pinger_free
                0x0040ee70                _pinger_new
 .text          0x0040ef10     0x2dd0 proxy.o
                0x004101d0                _proxy_socks4_negotiate
                0x00410fd0                _format_telnet_command
                0x00411bd0                _proxy_telnet_negotiate
                0x0040ef10                _proxy_activate
                0x0040f8c0                _new_connection
                0x0040f820                _name_lookup
                0x0040fb70                _new_listener
                0x0040fbd0                _proxy_http_negotiate
                0x004105b0                _proxy_socks5_negotiate
 .text          0x00411ce0      0x440 raw.o
 .text          0x00412120      0x740 rlogin.o
 .text          0x00412860      0x660 sercfg.o
                0x00412b00                _ser_setup_config_box
 .text          0x00412ec0     0x3900 settings.o
                0x00413410                _save_open_settings
                0x004163d0                _load_settings
                0x00414a90                _save_settings
                0x00416410                _do_defaults
                0x004164b0                _get_sesslist
                0x00414ae0                _load_open_settings
 .text          0x004167c0      0x5e0 sizetip.o
                0x00416d50                _EnableSizeTip
                0x00416aa0                _UpdateSizeTip
 .text          0x00416da0     0x1980 telnet.o
 .text          0x00418720     0xc290 terminal.o
                0x0041dd30                _term_scroll
                0x0041a380                _term_clrsb
                0x0041d370                _term_update
                0x004244e0                _term_provide_logctx
                0x00424500                _term_set_focus
                0x0041fec0                _term_paste_pending
                0x0041b800                _term_init
                0x00419d60                _term_seen_key_event
                0x00424580                _term_get_userpass_input
                0x00420020                _term_ldisc
                0x00420000                _term_deselect
                0x00424520                _term_get_ttymode
                0x0041eb90                _term_mouse
                0x0041ba70                _term_reconfig
                0x0041e360                _term_copyall
                0x0041a2f0                _term_provide_resize_fn
                0x00419e30                _term_free
                0x0041dbb0                _term_paint
                0x00420050                _term_data
                0x0041d4f0                _term_size
                0x00424460                _term_data_untrusted
                0x0041a6d0                _term_invalidate
                0x0041e950                _term_do_paste
                0x0041f3e0                _term_key
                0x0041f3a0                _term_nopaste
                0x0041fee0                _term_paste
                0x0041db30                _term_pwron
 .text          0x004249b0      0x1b0 testback.o
 .text          0x00424b60      0x2b0 timing.o
                0x00424de0                _expire_timer_context
                0x00424c40                _schedule_timer
                0x00424d00                _run_timers
 .text          0x00424e10     0x1110 tree234.o
                0x00425540                _add234
                0x00425ed0                _del234
                0x00425570                _addpos234
                0x00424e10                _newtree234
                0x00424e80                _freetree234
                0x00424ee0                _count234
                0x004257e0                _find234
                0x00425640                _findrelpos234
                0x004255a0                _index234
                0x00425e80                _delpos234
                0x00425810                _findrel234
                0x00425840                _findpos234
 .text          0x00425f20        0x0 version.o
 .text          0x00425f20      0x270 wcwidth.o
                0x004260f0                _mk_wcwidth_cjk
                0x00426130                _mk_wcswidth_cjk
                0x00426090                _mk_wcswidth
                0x00425fa0                _mk_wcwidth
 .text          0x00426190      0xfb0 wincfg.o
                0x004261d0                _win_setup_config_box
 .text          0x00427140     0x56b0 winctrls.o
                0x0042b020                _dlg_listbox_index
                0x0042a940                _winctrl_context_help
                0x0042c6b0                _dlg_set_privdata
                0x004279c0                _checkbox
                0x00428a70                _prefslist
                0x00427140                _ctlposinit
                0x004287b0                _ersatztab
                0x00427a40                _staticwrap
                0x00427cb0                _statictext
                0x00427590                _combobox
                0x00429360                _progressbar
                0x0042aeb0                _dlg_listbox_addwithid
                0x004286b0                _listbox
                0x0042c5d0                _dp_cleanup
                0x0042b460                _dlg_fontsel_set
                0x0042b120                _dlg_listbox_issel
                0x0042ae10                _dlg_listbox_add
                0x00429630                _winctrl_add
                0x0042b380                _dlg_filesel_set
                0x0042c3c0                _dlg_refresh
                0x004285c0                _bigeditctrl
                0x00427400                _endbox
                0x004273a0                _beginbox
                0x0042c590                _dp_add_tree
                0x0042abf0                _dlg_editbox_set
                0x0042b560                _winctrl_handle_command
                0x0042acd0                _dlg_listbox_clear
                0x00429500                _winctrl_rem_shortcuts
                0x00428260                _staticpassedit
                0x00427db0                _staticbtn
                0x0042b290                _dlg_label_change
                0x0042ab20                _dlg_checkbox_set
                0x004297a0                _winctrl_findbyid
                0x00427320                _bartitle
                0x00427850                _radioline
                0x004296a0                _winctrl_remove
                0x00429770                _winctrl_findbyctrl
                0x004297f0                _winctrl_layout
                0x00427200                _doctl
                0x00428e60                _pl_itemfrompt
                0x0042ac50                _dlg_editbox_get
                0x0042c4b0                _dlg_coloursel_results
                0x004284c0                _staticddlbig
                0x0042aa00                _dlg_radiobutton_set
                0x00429600                _winctrl_init
                0x0042c3a0                _dlg_end
                0x0042ad70                _dlg_listbox_del
                0x004297d0                _winctrl_findbyindex
                0x0042c160                _dlg_fontsel_get
                0x00429700                _winctrl_cleanup
                0x00427d30                _paneltitle
                0x004278e0                _bareradioline
                0x0042a920                _dlg_last_focused
                0x00427eb0                _button
                0x0042c1c0                _dlg_update_start
                0x0042c480                _dlg_coloursel_start
                0x004282a0                _staticddl
                0x00428fb0                _handle_prefslist
                0x0042c350                _dlg_beep
                0x0042c730                _dlg_alloc_privdata
                0x0042b1a0                _dlg_listbox_select
                0x00428220                _staticedit
                0x00427490                _editboxfw
                0x0042c220                _dlg_update_done
                0x0042ab90                _dlg_checkbox_get
                0x00428910                _editbutton
                0x0042c670                _dlg_get_privdata
                0x0042afa0                _dlg_listbox_getid
                0x0042b230                _dlg_text_set
                0x00429490                _winctrl_add_shortcuts
                0x004283b0                _staticcombo
                0x0042b3e0                _dlg_filesel_get
                0x0042c370                _dlg_error_msg
                0x0042c510                _dp_init
                0x00427950                _radiobig
                0x0042c2a0                _dlg_set_focus
                0x0042aa80                _dlg_radiobutton_get
                0x00427f80                _static2btn
 .text          0x0042c7f0      0x160 windefs.o
                0x0042c940                _platform_default_i
                0x0042c8f0                _platform_default_s
                0x0042c870                _platform_default_filename
                0x0042c7f0                _platform_default_fontspec
 .text          0x0042c950     0x1ba0 windlg.o
                0x0042db50                _show_help
                0x0042ded0                _logevent
                0x0042e0c0                _showeventlog
                0x0042e180                _verify_ssh_host_key
                0x0042c950                _force_normal
                0x0042dae0                _modal_about_box
                0x0042db70                _defuse_showwindow
                0x0042e470                _old_keyfile_warning
                0x0042e140                _showabout
                0x0042e340                _askalg
                0x0042e3d0                _askappend
                0x0042dd20                _do_reconfig
                0x0042dbe0                _do_config
 .text          0x0042e4f0     0x9d80 window.o
                0x0042f980                _timer_change_notify
                0x0042ea70                _connection_fatal
                0x00432b90                _refresh_window
                0x0042fa40                _get_ctx
                0x00438160                _from_backend
                0x004314b0                _palette_set
                0x004324b0                _get_clip
                0x0042fc10                _do_text_internal
                0x00433620                _WinMain@16
                0x00430fe0                _set_icon
                0x004326f0                _modalfatalbox
                0x00431890                _write_clip
                0x0042f8e0                _notify_remote_exit
                0x0042e4f0                _ldisc_update
                0x00438210                _agent_schedule_callback
                0x00432bc0                _set_zoomed
                0x00438180                _from_backend_untrusted
                0x004381a0                _get_userpass_input
                0x00431750                _write_aclip
                0x00432ac0                _move_window
                0x00432c20                _is_iconic
                0x0042eb10                _cmdline_error
                0x00430a20                _do_text
                0x0042fa90                _free_ctx
                0x00430ae0                _do_cursor
                0x00432c40                _get_window_pos
                0x0042e680                _do_select
                0x0042ea40                _set_raw_mouse_mode
                0x00438150                _frontend_keypress
                0x00432670                _fatalbox
                0x0042e6f0                _update_specials_menu
                0x00430db0                _char_width
                0x00432c70                _get_window_pixels
                0x0042ea20                _set_busy_status
                0x00432a60                _set_iconic
                0x0042e610                _cleanup_exit
                0x00431610                _palette_reset
                0x0042e500                _get_ttymode
                0x00432cb0                _get_window_title
                0x004328f0                _do_beep
                0x00431060                _set_title
                0x0042fba0                _sys_cursor
                0x00433430                _request_resize
                0x00430fc0                _request_paste
                0x00431420                _set_sbar
                0x00432b30                _set_zorder
 .text          0x00438270      0xa30 winhandl.o
                0x00438950                _handle_get_events
                0x004388e0                _handle_write
                0x004386b0                _handle_input_new
                0x00438ac0                _handle_got_event
                0x004387c0                _handle_output_new
                0x00438c90                _handle_get_privdata
                0x00438a40                _handle_free
                0x00438c50                _handle_backlog
                0x00438c10                _handle_unthrottle
 .text          0x00438ca0      0x270 winhelp.o
                0x00438dd0                _has_help
                0x00438ec0                _quit_help
                0x00438dc0                _shutdown_help
                0x00438ca0                _init_help
                0x00438de0                _launch_help
 .text          0x00438f10      0x250 winmisc.o
                0x00438f10                _platform_get_x11_auth
                0x00438f40                _filename_from_str
                0x00438f20                _platform_get_x_display
                0x00438fa0                _filename_to_str
                0x00438fe0                _filename_is_null
                0x00438fb0                _filename_equal
                0x00439050                _init_winver
                0x00439090                _dputs
                0x00438ff0                _get_username
 .text          0x00439160     0x2660 winnet.o
                0x0043b590                _sk_addr_error
                0x0043a980                _sk_newlistener
                0x0043a3a0                _sk_register
                0x00439a10                _winsock_error_string
                0x0043a320                _sk_addr_free
                0x0043b6c0                _next_socket
                0x00439970                _sk_cleanup
                0x004391a0                _sk_startup
                0x00439ed0                _sk_nextaddr
                0x0043b6f0                _socket_writable
                0x004391f0                _sk_init
                0x00439b30                _sk_namelookup
                0x0043b680                _first_socket
                0x0043b620                _socket_reselect_all
                0x00439f20                _sk_getaddr
                0x0043ada0                _try_send
                0x0043b730                _net_service_lookup
                0x0043a150                _sk_address_is_local
                0x0043a8a0                _sk_new
                0x00439e50                _sk_nonamelookup
                0x0043a240                _sk_addrcopy
                0x0043b040                _select_result
                0x0043b500                _net_pending_errors
                0x0043a010                _sk_hostname_is_local
                0x0043a220                _sk_addrtype
                0x0043b770                _platform_get_x11_unix_address
 .text          0x0043b7c0      0x380 winprint.o
                0x0043b980                _printer_finish_enum
                0x0043b940                _printer_get_name
                0x0043b7c0                _printer_start_enum
                0x0043baf0                _printer_finish_job
                0x0043b9d0                _printer_start_job
                0x0043bab0                _printer_job_data
 .text          0x0043bb40      0x450 winproxy.o
                0x0043bcf0                _platform_new_connection
                0x0043bb40                _localproxy_gotdata
                0x0043bbd0                _localproxy_sentdata
 .text          0x0043bf90      0x840 winser.o
 .text          0x0043c7d0     0x13b0 winstore.o
                0x0043cde0                _read_setting_filename
                0x0043c9e0                _write_setting_i
                0x0043ca20                _close_settings_w
                0x0043d8c0                _read_random_seed
                0x0043c980                _write_setting_s
                0x0043d110                _verify_host_key
                0x0043cd10                _write_setting_fontspec
                0x0043ca40                _open_settings_r
                0x0043cb10                _read_setting_s
                0x0043d940                _write_random_seed
                0x0043cf60                _enum_settings_next
                0x0043ce20                _write_setting_filename
                0x0043cbd0                _read_setting_fontspec
                0x0043cb70                _read_setting_i
                0x0043c870                _open_settings_w
                0x0043d410                _store_host_key
                0x0043cf00                _enum_settings_start
                0x0043ce50                _close_settings_r
                0x0043da20                _cleanup_all
                0x0043ce70                _del_settings
                0x0043d060                _enum_settings_finish
 .text          0x0043db80       0x90 wintime.o
                0x0043db80                _ltime
 .text          0x0043dc10     0x1090 winucs.o
                0x0043e5e0                _init_ucs
                0x0043dc70                _xlat_uskbd2cyrllic
                0x0043e2b0                _cp_enumerate
                0x0043dd90                _decode_codepage
                0x0043e430                _mb_to_wc
                0x0043e2d0                _wc_to_mb
                0x0043dc90                _check_compose_internal
                0x0043e470                _get_unitab
                0x0043dd70                _check_compose
                0x0043ec80                _is_dbcs_leadbyte
                0x0043e160                _cp_name
 .text          0x0043eca0      0x580 winutils.o
                0x0043eee0                _split_into_argv
                0x0043eca0                _request_file
                0x0043ee30                _message_box
                0x0043edb0                _filereq_free
                0x0043ed90                _filereq_new
                0x0043eeb0                _pgp_fingerprints
 .text          0x0043f220        0x8 /usr/lib/w32api/libadvapi32.a(dykgs00245.o)
                0x0043f220                _GetUserNameA@8
 .text          0x0043f228        0x8 /usr/lib/w32api/libadvapi32.a(dykgs00389.o)
                0x0043f228                _RegCreateKeyA@12
 .text          0x0043f230        0x8 /usr/lib/w32api/libadvapi32.a(dykgs00386.o)
                0x0043f230                _RegCloseKey@4
 .text          0x0043f238        0x8 /usr/lib/w32api/libadvapi32.a(dykgs00434.o)
                0x0043f238                _RegSetValueExA@24
 .text          0x0043f240        0x8 /usr/lib/w32api/libadvapi32.a(dykgs00412.o)
                0x0043f240                _RegOpenKeyA@12
 .text          0x0043f248        0x8 /usr/lib/w32api/libadvapi32.a(dykgs00423.o)
                0x0043f248                _RegQueryValueExA@24
 .text          0x0043f250        0x8 /usr/lib/w32api/libadvapi32.a(dykgs00393.o)
                0x0043f250                _RegDeleteKeyA@8
 .text          0x0043f258        0x8 /usr/lib/w32api/libadvapi32.a(dykgs00400.o)
                0x0043f258                _RegEnumKeyA@16
 .text          0x0043f260        0x0 /usr/lib/w32api/libadvapi32.a(dykgh.o)
 .text          0x0043f260        0x0 /usr/lib/w32api/libadvapi32.a(dykgt.o)
 .text          0x0043f260        0x8 /usr/lib/w32api/libcomctl32.a(dkzhs00094.o)
                0x0043f260                _MakeDragList@4
 .text          0x0043f268        0x8 /usr/lib/w32api/libcomctl32.a(dkzhs00093.o)
                0x0043f268                _LBItemFromPt@16
 .text          0x0043f270        0x8 /usr/lib/w32api/libcomctl32.a(dkzhs00041.o)
                0x0043f270                _DrawInsert@12
 .text          0x0043f278        0x8 /usr/lib/w32api/libcomctl32.a(dkzhs00091.o)
                0x0043f278                _InitCommonControls@0
 .text          0x0043f280        0x0 /usr/lib/w32api/libcomctl32.a(dkzhh.o)
 .text          0x0043f280        0x0 /usr/lib/w32api/libcomctl32.a(dkzht.o)
 .text          0x0043f280        0x8 /usr/lib/w32api/libcomdlg32.a(dmycs00002.o)
                0x0043f280                _ChooseFontA@4
 .text          0x0043f288        0x8 /usr/lib/w32api/libcomdlg32.a(dmycs00000.o)
                0x0043f288                _ChooseColorA@4
 .text          0x0043f290        0x8 /usr/lib/w32api/libcomdlg32.a(dmycs00011.o)
                0x0043f290                _GetSaveFileNameA@4
 .text          0x0043f298        0x8 /usr/lib/w32api/libcomdlg32.a(dmycs00009.o)
                0x0043f298                _GetOpenFileNameA@4
 .text          0x0043f2a0        0x0 /usr/lib/w32api/libcomdlg32.a(dmych.o)
 .text          0x0043f2a0        0x0 /usr/lib/w32api/libcomdlg32.a(dmyct.o)
 .text          0x0043f2a0        0x8 /usr/lib/w32api/libgdi32.a(dyohs00034.o)
                0x0043f2a0                _CreateCompatibleDC@4
 .text          0x0043f2a8        0x8 /usr/lib/w32api/libgdi32.a(dyohs00279.o)
                0x0043f2a8                _SelectObject@8
 .text          0x0043f2b0        0x8 /usr/lib/w32api/libgdi32.a(dyohs00211.o)
                0x0043f2b0                _GetTextExtentPoint32A@16
 .text          0x0043f2b8        0x8 /usr/lib/w32api/libgdi32.a(dyohs00070.o)
                0x0043f2b8                _DeleteDC@4
 .text          0x0043f2c0        0x8 /usr/lib/w32api/libgdi32.a(dyohs00199.o)
                0x0043f2c0                _GetStockObject@4
 .text          0x0043f2c8        0x8 /usr/lib/w32api/libgdi32.a(dyohs00067.o)
                0x0043f2c8                _CreateSolidBrush@4
 .text          0x0043f2d0        0x8 /usr/lib/w32api/libgdi32.a(dyohs00261.o)
                0x0043f2d0                _Rectangle@20
 .text          0x0043f2d8        0x8 /usr/lib/w32api/libgdi32.a(dyohs00321.o)
                0x0043f2d8                _SetTextColor@8
 .text          0x0043f2e0        0x8 /usr/lib/w32api/libgdi32.a(dyohs00285.o)
                0x0043f2e0                _SetBkColor@8
 .text          0x0043f2e8        0x8 /usr/lib/w32api/libgdi32.a(dyohs00337.o)
                0x0043f2e8                _TextOutA@20
 .text          0x0043f2f0        0x8 /usr/lib/w32api/libgdi32.a(dyohs00073.o)
                0x0043f2f0                _DeleteObject@4
 .text          0x0043f2f8        0x8 /usr/lib/w32api/libgdi32.a(dyohs00047.o)
                0x0043f2f8                _CreateFontIndirectA@4
 .text          0x0043f300        0x8 /usr/lib/w32api/libgdi32.a(dyohs00146.o)
                0x0043f300                _GetDeviceCaps@8
 .text          0x0043f308        0x8 /usr/lib/w32api/libgdi32.a(dyohs00304.o)
                0x0043f308                _SetMapMode@8
 .text          0x0043f310        0x8 /usr/lib/w32api/libgdi32.a(dyohs00208.o)
                0x0043f310                _GetTextExtentExPointA@28
 .text          0x0043f318        0x8 /usr/lib/w32api/libgdi32.a(dyohs00056.o)
                0x0043f318                _CreatePalette@4
 .text          0x0043f320        0x8 /usr/lib/w32api/libgdi32.a(dyohs00280.o)
                0x0043f320                _SelectPalette@12
 .text          0x0043f328        0x8 /usr/lib/w32api/libgdi32.a(dyohs00258.o)
                0x0043f328                _RealizePalette@4
 .text          0x0043f330        0x8 /usr/lib/w32api/libgdi32.a(dyohs00046.o)
                0x0043f330                _CreateFontA@56
 .text          0x0043f338        0x8 /usr/lib/w32api/libgdi32.a(dyohs00217.o)
                0x0043f338                _GetTextMetricsA@8
 .text          0x0043f340        0x8 /usr/lib/w32api/libgdi32.a(dyohs00183.o)
                0x0043f340                _GetObjectA@12
 .text          0x0043f348        0x8 /usr/lib/w32api/libgdi32.a(dyohs00339.o)
                0x0043f348                _TranslateCharsetInfo@12
 .text          0x0043f350        0x8 /usr/lib/w32api/libgdi32.a(dyohs00033.o)
                0x0043f350                _CreateCompatibleBitmap@12
 .text          0x0043f358        0x8 /usr/lib/w32api/libgdi32.a(dyohs00319.o)
                0x0043f358                _SetTextAlign@8
 .text          0x0043f360        0x8 /usr/lib/w32api/libgdi32.a(dyohs00286.o)
                0x0043f360                _SetBkMode@8
 .text          0x0043f368        0x8 /usr/lib/w32api/libgdi32.a(dyohs00102.o)
                0x0043f368                _ExtTextOutA@32
 .text          0x0043f370        0x8 /usr/lib/w32api/libgdi32.a(dyohs00190.o)
                0x0043f370                _GetPixel@12
 .text          0x0043f378        0x8 /usr/lib/w32api/libgdi32.a(dyohs00058.o)
                0x0043f378                _CreatePen@12
 .text          0x0043f380        0x8 /usr/lib/w32api/libgdi32.a(dyohs00232.o)
                0x0043f380                _MoveToEx@16
 .text          0x0043f388        0x8 /usr/lib/w32api/libgdi32.a(dyohs00229.o)
                0x0043f388                _LineTo@12
 .text          0x0043f390        0x8 /usr/lib/w32api/libgdi32.a(dyohs00103.o)
                0x0043f390                _ExtTextOutW@32
 .text          0x0043f398        0x8 /usr/lib/w32api/libgdi32.a(dyohs00136.o)
                0x0043f398                _GetCharacterPlacementW@24
 .text          0x0043f3a0        0x8 /usr/lib/w32api/libgdi32.a(dyohs00254.o)
                0x0043f3a0                _Polyline@12
 .text          0x0043f3a8        0x8 /usr/lib/w32api/libgdi32.a(dyohs00310.o)
                0x0043f3a8                _SetPixel@16
 .text          0x0043f3b0        0x8 /usr/lib/w32api/libgdi32.a(dyohs00130.o)
                0x0043f3b0                _GetCharWidth32W@16
 .text          0x0043f3b8        0x8 /usr/lib/w32api/libgdi32.a(dyohs00134.o)
                0x0043f3b8                _GetCharWidthW@16
 .text          0x0043f3c0        0x8 /usr/lib/w32api/libgdi32.a(dyohs00129.o)
                0x0043f3c0                _GetCharWidth32A@16
 .text          0x0043f3c8        0x8 /usr/lib/w32api/libgdi32.a(dyohs00131.o)
                0x0043f3c8                _GetCharWidthA@16
 .text          0x0043f3d0        0x8 /usr/lib/w32api/libgdi32.a(dyohs00309.o)
                0x0043f3d0                _SetPaletteEntries@16
 .text          0x0043f3d8        0x8 /usr/lib/w32api/libgdi32.a(dyohs00340.o)
                0x0043f3d8                _UnrealizeObject@4
 .text          0x0043f3e0        0x8 /usr/lib/w32api/libgdi32.a(dyohs00028.o)
                0x0043f3e0                _CreateBitmap@20
 .text          0x0043f3e8        0x8 /usr/lib/w32api/libgdi32.a(dyohs00225.o)
                0x0043f3e8                _IntersectClipRect@20
 .text          0x0043f3f0        0x8 /usr/lib/w32api/libgdi32.a(dyohs00096.o)
                0x0043f3f0                _ExcludeClipRect@20
 .text          0x0043f3f8        0x8 /usr/lib/w32api/libgdi32.a(dyohs00341.o)
                0x0043f3f8                _UpdateColors@4
 .text          0x0043f400        0x0 /usr/lib/w32api/libgdi32.a(dyohh.o)
 .text          0x0043f400        0x0 /usr/lib/w32api/libgdi32.a(dyoht.o)
 .text          0x0043f400        0x8 /usr/lib/w32api/libimm32.a(dasfs00025.o)
                0x0043f400                _ImmGetContext@4
 .text          0x0043f408        0x8 /usr/lib/w32api/libimm32.a(dasfs00065.o)
                0x0043f408                _ImmSetCompositionWindow@8
 .text          0x0043f410        0x8 /usr/lib/w32api/libimm32.a(dasfs00059.o)
                0x0043f410                _ImmReleaseContext@8
 .text          0x0043f418        0x8 /usr/lib/w32api/libimm32.a(dasfs00061.o)
                0x0043f418                _ImmSetCompositionFontA@8
 .text          0x0043f420        0x8 /usr/lib/w32api/libimm32.a(dasfs00023.o)
                0x0043f420                _ImmGetCompositionStringW@16
 .text          0x0043f428        0x0 /usr/lib/w32api/libimm32.a(dasfh.o)
 .text          0x0043f428        0x0 /usr/lib/w32api/libimm32.a(dasft.o)
 .text          0x0043f428        0x8 /usr/lib/w32api/libshell32.a(dsdfs00143.o)
                0x0043f428                _ShellExecuteA@24
 .text          0x0043f430        0x0 /usr/lib/w32api/libshell32.a(dsdfh.o)
 .text          0x0043f430        0x0 /usr/lib/w32api/libshell32.a(dsdft.o)
 .text          0x0043f430        0x8 /usr/lib/w32api/libuser32.a(dwxfs00133.o)
                0x0043f430                _DefWindowProcA@16
 .text          0x0043f438        0x8 /usr/lib/w32api/libuser32.a(dwxfs00568.o)
                0x0043f438                _SetWindowPos@28
 .text          0x0043f440        0x8 /usr/lib/w32api/libuser32.a(dwxfs00368.o)
                0x0043f440                _InvalidateRect@12
 .text          0x0043f448        0x8 /usr/lib/w32api/libuser32.a(dwxfs00011.o)
                0x0043f448                _BeginPaint@8
 .text          0x0043f450        0x8 /usr/lib/w32api/libuser32.a(dwxfs00235.o)
                0x0043f450                _GetClientRect@8
 .text          0x0043f458        0x8 /usr/lib/w32api/libuser32.a(dwxfs00349.o)
                0x0043f458                _GetWindowTextLengthA@4
 .text          0x0043f460        0x8 /usr/lib/w32api/libuser32.a(dwxfs00348.o)
                0x0043f460                _GetWindowTextA@12
 .text          0x0043f468        0x8 /usr/lib/w32api/libuser32.a(dwxfs00183.o)
                0x0043f468                _EndPaint@8
 .text          0x0043f470        0x8 /usr/lib/w32api/libuser32.a(dwxfs00346.o)
                0x0043f470                _GetWindowRect@8
 .text          0x0043f478        0x8 /usr/lib/w32api/libuser32.a(dwxfs00089.o)
                0x0043f478                _CreateWindowExA@48
 .text          0x0043f480        0x8 /usr/lib/w32api/libuser32.a(dwxfs00581.o)
                0x0043f480                _ShowWindow@8
 .text          0x0043f488        0x8 /usr/lib/w32api/libuser32.a(dwxfs00322.o)
                0x0043f488                _GetSysColor@4
 .text          0x0043f490        0x8 /usr/lib/w32api/libuser32.a(dwxfs00587.o)
                0x0043f490                _SystemParametersInfoA@16
 .text          0x0043f498        0x8 /usr/lib/w32api/libuser32.a(dwxfs00570.o)
                0x0043f498                _SetWindowTextA@8
 .text          0x0043f4a0        0x8 /usr/lib/w32api/libuser32.a(dwxfs00476.o)
                0x0043f4a0                _RegisterClassA@4
 .text          0x0043f4a8        0x8 /usr/lib/w32api/libuser32.a(dwxfs00143.o)
                0x0043f4a8                _DestroyWindow@4
 .text          0x0043f4b0        0x8 /usr/lib/w32api/libuser32.a(dwxfs00224.o)
                0x0043f4b0                _GetCaretBlinkTime@0
 .text          0x0043f4b8        0x8 /usr/lib/w32api/libuser32.a(dwxfs00504.o)
                0x0043f4b8                _SendMessageA@16
 .text          0x0043f4c0        0x8 /usr/lib/w32api/libuser32.a(dwxfs00423.o)
                0x0043f4c0                _MapDialogRect@8
 .text          0x0043f4c8        0x8 /usr/lib/w32api/libuser32.a(dwxfs00247.o)
                0x0043f4c8                _GetDC@4
 .text          0x0043f4d0        0x8 /usr/lib/w32api/libuser32.a(dwxfs00490.o)
                0x0043f4d0                _ReleaseDC@8
 .text          0x0043f4d8        0x8 /usr/lib/w32api/libuser32.a(dwxfs00501.o)
                0x0043f4d8                _SendDlgItemMessageA@20
 .text          0x0043f4e0        0x8 /usr/lib/w32api/libuser32.a(dwxfs00565.o)
                0x0043f4e0                _SetWindowLongA@12
 .text          0x0043f4e8        0x8 /usr/lib/w32api/libuser32.a(dwxfs00430.o)
                0x0043f4e8                _MessageBeep@4
 .text          0x0043f4f0        0x8 /usr/lib/w32api/libuser32.a(dwxfs00056.o)
                0x0043f4f0                _CheckRadioButton@16
 .text          0x0043f4f8        0x8 /usr/lib/w32api/libuser32.a(dwxfs00384.o)
                0x0043f4f8                _IsDlgButtonChecked@8
 .text          0x0043f500        0x8 /usr/lib/w32api/libuser32.a(dwxfs00053.o)
                0x0043f500                _CheckDlgButton@12
 .text          0x0043f508        0x8 /usr/lib/w32api/libuser32.a(dwxfs00526.o)
                0x0043f508                _SetDlgItemTextA@12
 .text          0x0043f510        0x8 /usr/lib/w32api/libuser32.a(dwxfs00254.o)
                0x0043f510                _GetDlgItemTextA@16
 .text          0x0043f518        0x8 /usr/lib/w32api/libuser32.a(dwxfs00487.o)
                0x0043f518                _RegisterWindowMessageA@4
 .text          0x0043f520        0x8 /usr/lib/w32api/libuser32.a(dwxfs00162.o)
                0x0043f520                _DrawEdge@16
 .text          0x0043f528        0x8 /usr/lib/w32api/libuser32.a(dwxfs00513.o)
                0x0043f528                _SetCapture@4
 .text          0x0043f530        0x8 /usr/lib/w32api/libuser32.a(dwxfs00252.o)
                0x0043f530                _GetDlgItem@8
 .text          0x0043f538        0x8 /usr/lib/w32api/libuser32.a(dwxfs00529.o)
                0x0043f538                _SetFocus@4
 .text          0x0043f540        0x8 /usr/lib/w32api/libuser32.a(dwxfs00431.o)
                0x0043f540                _MessageBoxA@16
 .text          0x0043f548        0x8 /usr/lib/w32api/libuser32.a(dwxfs00345.o)
                0x0043f548                _GetWindowPlacement@8
 .text          0x0043f550        0x8 /usr/lib/w32api/libuser32.a(dwxfs00567.o)
                0x0043f550                _SetWindowPlacement@8
 .text          0x0043f558        0x8 /usr/lib/w32api/libuser32.a(dwxfs00303.o)
                0x0043f558                _GetParent@4
 .text          0x0043f560        0x8 /usr/lib/w32api/libuser32.a(dwxfs00512.o)
                0x0043f560                _SetActiveWindow@4
 .text          0x0043f568        0x8 /usr/lib/w32api/libuser32.a(dwxfs00181.o)
                0x0043f568                _EndDialog@8
 .text          0x0043f570        0x8 /usr/lib/w32api/libuser32.a(dwxfs00179.o)
                0x0043f570                _EnableWindow@8
 .text          0x0043f578        0x8 /usr/lib/w32api/libuser32.a(dwxfs00146.o)
                0x0043f578                _DialogBoxParamA@20
 .text          0x0043f580        0x8 /usr/lib/w32api/libuser32.a(dwxfs00126.o)
                0x0043f580                _DefDlgProcA@16
 .text          0x0043f588        0x8 /usr/lib/w32api/libuser32.a(dwxfs00402.o)
                0x0043f588                _LoadCursorA@8
 .text          0x0043f590        0x8 /usr/lib/w32api/libuser32.a(dwxfs00079.o)
                0x0043f590                _CreateDialogParamA@20
 .text          0x0043f598        0x8 /usr/lib/w32api/libuser32.a(dwxfs00292.o)
                0x0043f598                _GetMessageA@16
 .text          0x0043f5a0        0x8 /usr/lib/w32api/libuser32.a(dwxfs00340.o)
                0x0043f5a0                _GetWindowLongA@8
 .text          0x0043f5a8        0x8 /usr/lib/w32api/libuser32.a(dwxfs00382.o)
                0x0043f5a8                _IsDialogMessageA@8
 .text          0x0043f5b0        0x8 /usr/lib/w32api/libuser32.a(dwxfs00148.o)
                0x0043f5b0                _DispatchMessageA@4
 .text          0x0043f5b8        0x8 /usr/lib/w32api/libuser32.a(dwxfs00465.o)
                0x0043f5b8                _PostQuitMessage@4
 .text          0x0043f5c0        0x8 /usr/lib/w32api/libuser32.a(dwxfs00489.o)
                0x0043f5c0                _ReleaseCapture@0
 .text          0x0043f5c8        0x8 /usr/lib/w32api/libuser32.a(dwxfs00223.o)
                0x0043f5c8                _GetCapture@0
 .text          0x0043f5d0        0x8 /usr/lib/w32api/libuser32.a(dwxfs00406.o)
                0x0043f5d0                _LoadIconA@8
 .text          0x0043f5d8        0x8 /usr/lib/w32api/libuser32.a(dwxfs00249.o)
                0x0043f5d8                _GetDesktopWindow@0
 .text          0x0043f5e0        0x8 /usr/lib/w32api/libuser32.a(dwxfs00442.o)
                0x0043f5e0                _MoveWindow@24
 .text          0x0043f5e8        0x8 /usr/lib/w32api/libuser32.a(dwxfs00136.o)
                0x0043f5e8                _DeleteMenu@12
 .text          0x0043f5f0        0x8 /usr/lib/w32api/libuser32.a(dwxfs00006.o)
                0x0043f5f0                _AppendMenuA@16
 .text          0x0043f5f8        0x8 /usr/lib/w32api/libuser32.a(dwxfs00362.o)
                0x0043f5f8                _InsertMenuA@20
 .text          0x0043f600        0x8 /usr/lib/w32api/libuser32.a(dwxfs00088.o)
                0x0043f600                _CreatePopupMenu@0
 .text          0x0043f608        0x8 /usr/lib/w32api/libuser32.a(dwxfs00516.o)
                0x0043f608                _SetClassLongA@12
 .text          0x0043f610        0x8 /usr/lib/w32api/libuser32.a(dwxfs00521.o)
                0x0043f610                _SetCursor@4
 .text          0x0043f618        0x8 /usr/lib/w32api/libuser32.a(dwxfs00578.o)
                0x0043f618                _ShowCursor@4
 .text          0x0043f620        0x8 /usr/lib/w32api/libuser32.a(dwxfs00272.o)
                0x0043f620                _GetKeyboardState@4
 .text          0x0043f628        0x8 /usr/lib/w32api/libuser32.a(dwxfs00397.o)
                0x0043f628                _KillTimer@8
 .text          0x0043f630        0x8 /usr/lib/w32api/libuser32.a(dwxfs00559.o)
                0x0043f630                _SetTimer@16
 .text          0x0043f638        0x8 /usr/lib/w32api/libuser32.a(dwxfs00395.o)
                0x0043f638                _IsZoomed@4
 .text          0x0043f640        0x8 /usr/lib/w32api/libuser32.a(dwxfs00515.o)
                0x0043f640                _SetCaretPos@8
 .text          0x0043f648        0x8 /usr/lib/w32api/libuser32.a(dwxfs00387.o)
                0x0043f648                _IsIconic@4
 .text          0x0043f650        0x8 /usr/lib/w32api/libuser32.a(dwxfs00550.o)
                0x0043f650                _SetScrollInfo@16
 .text          0x0043f658        0x8 /usr/lib/w32api/libuser32.a(dwxfs00452.o)
                0x0043f658                _OpenClipboard@4
 .text          0x0043f660        0x8 /usr/lib/w32api/libuser32.a(dwxfs00176.o)
                0x0043f660                _EmptyClipboard@0
 .text          0x0043f668        0x8 /usr/lib/w32api/libuser32.a(dwxfs00519.o)
                0x0043f668                _SetClipboardData@8
 .text          0x0043f670        0x8 /usr/lib/w32api/libuser32.a(dwxfs00061.o)
                0x0043f670                _CloseClipboard@0
 .text          0x0043f678        0x8 /usr/lib/w32api/libuser32.a(dwxfs00480.o)
                0x0043f678                _RegisterClipboardFormatA@4
 .text          0x0043f680        0x8 /usr/lib/w32api/libuser32.a(dwxfs00237.o)
                0x0043f680                _GetClipboardData@4
 .text          0x0043f688        0x8 /usr/lib/w32api/libuser32.a(dwxfs00213.o)
                0x0043f688                _FlashWindow@8
 .text          0x0043f690        0x8 /usr/lib/w32api/libuser32.a(dwxfs00073.o)
                0x0043f690                _CreateCaret@16
 .text          0x0043f698        0x8 /usr/lib/w32api/libuser32.a(dwxfs00256.o)
                0x0043f698                _GetDoubleClickTime@0
 .text          0x0043f6a0        0x8 /usr/lib/w32api/libuser32.a(dwxfs00324.o)
                0x0043f6a0                _GetSystemMenu@8
 .text          0x0043f6a8        0x8 /usr/lib/w32api/libuser32.a(dwxfs00087.o)
                0x0043f6a8                _CreateMenu@0
 .text          0x0043f6b0        0x8 /usr/lib/w32api/libuser32.a(dwxfs00268.o)
                0x0043f6b0                _GetKeyboardLayout@4
 .text          0x0043f6b8        0x8 /usr/lib/w32api/libuser32.a(dwxfs00530.o)
                0x0043f6b8                _SetForegroundWindow@4
 .text          0x0043f6c0        0x8 /usr/lib/w32api/libuser32.a(dwxfs00258.o)
                0x0043f6c0                _GetForegroundWindow@0
 .text          0x0043f6c8        0x8 /usr/lib/w32api/libuser32.a(dwxfs00617.o)
                0x0043f6c8                _UpdateWindow@4
 .text          0x0043f6d0        0x8 /usr/lib/w32api/libuser32.a(dwxfs00443.o)
                0x0043f6d0                _MsgWaitForMultipleObjects@20
 .text          0x0043f6d8        0x8 /usr/lib/w32api/libuser32.a(dwxfs00461.o)
                0x0043f6d8                _PeekMessageA@20
 .text          0x0043f6e0        0x8 /usr/lib/w32api/libuser32.a(dwxfs00391.o)
                0x0043f6e0                _IsWindow@4
 .text          0x0043f6e8        0x8 /usr/lib/w32api/libuser32.a(dwxfs00054.o)
                0x0043f6e8                _CheckMenuItem@12
 .text          0x0043f6f0        0x8 /usr/lib/w32api/libuser32.a(dwxfs00139.o)
                0x0043f6f0                _DestroyCaret@0
 .text          0x0043f6f8        0x8 /usr/lib/w32api/libuser32.a(dwxfs00177.o)
                0x0043f6f8                _EnableMenuItem@12
 .text          0x0043f700        0x8 /usr/lib/w32api/libuser32.a(dwxfs00604.o)
                0x0043f700                _TranslateMessage@4
 .text          0x0043f708        0x8 /usr/lib/w32api/libuser32.a(dwxfs00246.o)
                0x0043f708                _GetCursorPos@4
 .text          0x0043f710        0x8 /usr/lib/w32api/libuser32.a(dwxfs00295.o)
                0x0043f710                _GetMessageTime@0
 .text          0x0043f718        0x8 /usr/lib/w32api/libuser32.a(dwxfs00598.o)
                0x0043f718                _TrackPopupMenu@28
 .text          0x0043f720        0x8 /usr/lib/w32api/libuser32.a(dwxfs00463.o)
                0x0043f720                _PostMessageA@16
 .text          0x0043f728        0x8 /usr/lib/w32api/libuser32.a(dwxfs00577.o)
                0x0043f728                _ShowCaret@4
 .text          0x0043f730        0x8 /usr/lib/w32api/libuser32.a(dwxfs00531.o)
                0x0043f730                _SetKeyboardState@4
 .text          0x0043f738        0x8 /usr/lib/w32api/libuser32.a(dwxfs00594.o)
                0x0043f738                _ToAsciiEx@24
 .text          0x0043f740        0x8 /usr/lib/w32api/libuser32.a(dwxfs00356.o)
                0x0043f740                _HideCaret@4
 .text          0x0043f748        0x8 /usr/lib/w32api/libuser32.a(dwxfs00627.o)
                0x0043f748                _WinHelpA@16
 .text          0x0043f750        0x8 /usr/lib/w32api/libuser32.a(dwxfs00434.o)
                0x0043f750                _MessageBoxIndirectA@4
 .text          0x0043f758        0x0 /usr/lib/w32api/libuser32.a(dwxfh.o)
 .text          0x0043f758        0x0 /usr/lib/w32api/libuser32.a(dwxft.o)
 .text          0x0043f758        0x8 /usr/lib/w32api/libwinmm.a(dumfs00008.o)
                0x0043f758                _PlaySoundA@12
 .text          0x0043f760        0x0 /usr/lib/w32api/libwinmm.a(dumfh.o)
 .text          0x0043f760        0x0 /usr/lib/w32api/libwinmm.a(dumft.o)
 .text          0x0043f760        0x8 /usr/lib/w32api/libwinspool.a(dwbds00078.o)
                0x0043f760                _EnumPrintersA@28
 .text          0x0043f768        0x8 /usr/lib/w32api/libwinspool.a(dwbds00102.o)
                0x0043f768                _OpenPrinterA@12
 .text          0x0043f770        0x8 /usr/lib/w32api/libwinspool.a(dwbds00126.o)
                0x0043f770                _StartDocPrinterA@12
 .text          0x0043f778        0x8 /usr/lib/w32api/libwinspool.a(dwbds00128.o)
                0x0043f778                _StartPagePrinter@4
 .text          0x0043f780        0x8 /usr/lib/w32api/libwinspool.a(dwbds00025.o)
                0x0043f780                _ClosePrinter@4
 .text          0x0043f788        0x8 /usr/lib/w32api/libwinspool.a(dwbds00059.o)
                0x0043f788                _EndDocPrinter@4
 .text          0x0043f790        0x8 /usr/lib/w32api/libwinspool.a(dwbds00130.o)
                0x0043f790                _WritePrinter@16
 .text          0x0043f798        0x8 /usr/lib/w32api/libwinspool.a(dwbds00060.o)
                0x0043f798                _EndPagePrinter@4
 .text          0x0043f7a0        0x0 /usr/lib/w32api/libwinspool.a(dwbdh.o)
 .text          0x0043f7a0        0x0 /usr/lib/w32api/libwinspool.a(dwbdt.o)
 .text          0x0043f7a0        0x0 /usr/lib/gcc/i686-pc-mingw32/3.4.4/../../../../i686-pc-mingw32/lib/libmingw32.a(CRTglob.o)
 .text          0x0043f7a0        0x0 /usr/lib/gcc/i686-pc-mingw32/3.4.4/../../../../i686-pc-mingw32/lib/libmingw32.a(CRTfmode.o)
 .text          0x0043f7a0        0x0 /usr/lib/gcc/i686-pc-mingw32/3.4.4/../../../../i686-pc-mingw32/lib/libmingw32.a(txtmode.o)
 .text          0x0043f7a0      0x120 /usr/lib/gcc/i686-pc-mingw32/3.4.4/../../../../i686-pc-mingw32/lib/libmingw32.a(main.o)
                0x0043f7a0                _main
 .text          0x0043f8c0       0xb0 /usr/lib/gcc/i686-pc-mingw32/3.4.4/../../../../i686-pc-mingw32/lib/libmingw32.a(gccmain.o)
                0x0043f950                ___main
                0x0043f8c0                ___do_global_dtors
                0x0043f8f0                ___do_global_ctors
 .text          0x0043f970       0x30 /usr/lib/gcc/i686-pc-mingw32/3.4.4/../../../../i686-pc-mingw32/lib/libmingw32.a(pseudo-reloc.o)
                0x0043f970                __pei386_runtime_relocator
 .text          0x0043f9a0      0x100 /usr/lib/gcc/i686-pc-mingw32/3.4.4/../../../../i686-pc-mingw32/lib/libmingw32.a(cpu_features.o)
                0x0043f9a0                ___cpu_features_init
 .text          0x0043faa0       0x10 /usr/lib/gcc/i686-pc-mingw32/3.4.4/../../../../i686-pc-mingw32/lib/libmingw32.a(CRT_fp10.o)
                0x0043faa0                __fpreset
                0x0043faa0                _fpreset
 .text          0x0043fab0        0x0 /usr/lib/gcc/i686-pc-mingw32/3.4.4/../../../../i686-pc-mingw32/lib/libmingw32.a(pseudo-reloc-list.o)
 .text          0x0043fab0       0x30 /usr/lib/gcc/i686-pc-mingw32/3.4.4/libgcc.a(_chkstk.o)
                0x0043fab0                ___chkstk
                0x0043fab0                __alloca
 .text          0x0043fae0        0x0 /usr/lib/gcc/i686-pc-mingw32/3.4.4/libgcc.a(_ctors.o)
 .text          0x0043fae0        0x8 /usr/lib/gcc/i686-pc-mingw32/3.4.4/../../../../i686-pc-mingw32/lib/libmoldname.a(dctgs00084.o)
                0x0043fae0                _strnicmp
 .text          0x0043fae8        0x0 /usr/lib/gcc/i686-pc-mingw32/3.4.4/../../../../i686-pc-mingw32/lib/libmoldname.a(dctgh.o)
 .text          0x0043fae8        0x0 /usr/lib/gcc/i686-pc-mingw32/3.4.4/../../../../i686-pc-mingw32/lib/libmoldname.a(dctgt.o)
 .text          0x0043fae8        0x0 /usr/lib/gcc/i686-pc-mingw32/3.4.4/../../../../i686-pc-mingw32/lib/libmsvcrt.a(doxfs00266.o)
 .text          0x0043fae8        0x0 /usr/lib/gcc/i686-pc-mingw32/3.4.4/../../../../i686-pc-mingw32/lib/libmsvcrt.a(doxfs00590.o)
 .text          0x0043fae8        0x0 /usr/lib/gcc/i686-pc-mingw32/3.4.4/../../../../i686-pc-mingw32/lib/libmsvcrt.a(doxfs00383.o)
 .text          0x0043fae8        0x8 /usr/lib/gcc/i686-pc-mingw32/3.4.4/../../../../i686-pc-mingw32/lib/libmsvcrt.a(doxfs00147.o)
                0x0043fae8                __cexit
 .text          0x0043faf0        0x8 /usr/lib/gcc/i686-pc-mingw32/3.4.4/../../../../i686-pc-mingw32/lib/libmsvcrt.a(doxfs00077.o)
                0x0043faf0                ___p__environ
 .text          0x0043faf8        0x8 /usr/lib/gcc/i686-pc-mingw32/3.4.4/../../../../i686-pc-mingw32/lib/libmsvcrt.a(doxfs00706.o)
                0x0043faf8                _signal
 .text          0x0043fb00        0x8 /usr/lib/gcc/i686-pc-mingw32/3.4.4/../../../../i686-pc-mingw32/lib/libmsvcrt.a(doxfs00079.o)
                0x0043fb00                ___p__fmode
 .text          0x0043fb08        0x8 /usr/lib/gcc/i686-pc-mingw32/3.4.4/../../../../i686-pc-mingw32/lib/libmsvcrt.a(doxfs00426.o)
                0x0043fb08                __setmode
 .text          0x0043fb10        0x8 /usr/lib/gcc/i686-pc-mingw32/3.4.4/../../../../i686-pc-mingw32/lib/libmsvcrt.a(doxfs00055.o)
                0x0043fb10                ___getmainargs
 .text          0x0043fb18        0x8 /usr/lib/gcc/i686-pc-mingw32/3.4.4/../../../../i686-pc-mingw32/lib/libmsvcrt.a(doxfs00684.o)
                0x0043fb18                _memset
 .text          0x0043fb20        0x8 /usr/lib/gcc/i686-pc-mingw32/3.4.4/../../../../i686-pc-mingw32/lib/libmsvcrt.a(doxfs00611.o)
                0x0043fb20                _fgetc
 .text          0x0043fb28        0x8 /usr/lib/gcc/i686-pc-mingw32/3.4.4/../../../../i686-pc-mingw32/lib/libmsvcrt.a(doxfs00592.o)
                0x0043fb28                _atoi
 .text          0x0043fb30        0x8 /usr/lib/gcc/i686-pc-mingw32/3.4.4/../../../../i686-pc-mingw32/lib/libmsvcrt.a(doxfs00714.o)
                0x0043fb30                _strchr
 .text          0x0043fb38        0x8 /usr/lib/gcc/i686-pc-mingw32/3.4.4/../../../../i686-pc-mingw32/lib/libmsvcrt.a(doxfs00721.o)
                0x0043fb38                _strlen
 .text          0x0043fb40        0x8 /usr/lib/gcc/i686-pc-mingw32/3.4.4/../../../../i686-pc-mingw32/lib/libmsvcrt.a(doxfs00724.o)
                0x0043fb40                _strncpy
 .text          0x0043fb48        0x8 /usr/lib/gcc/i686-pc-mingw32/3.4.4/../../../../i686-pc-mingw32/lib/libmsvcrt.a(doxfs00618.o)
                0x0043fb48                _fopen
 .text          0x0043fb50        0x8 /usr/lib/gcc/i686-pc-mingw32/3.4.4/../../../../i686-pc-mingw32/lib/libmsvcrt.a(doxfs00682.o)
                0x0043fb50                _memcpy
 .text          0x0043fb58        0x8 /usr/lib/gcc/i686-pc-mingw32/3.4.4/../../../../i686-pc-mingw32/lib/libmsvcrt.a(doxfs00683.o)
                0x0043fb58                _memmove
 .text          0x0043fb60        0x8 /usr/lib/gcc/i686-pc-mingw32/3.4.4/../../../../i686-pc-mingw32/lib/libmsvcrt.a(doxfs00723.o)
                0x0043fb60                _strncmp
 .text          0x0043fb68        0x8 /usr/lib/gcc/i686-pc-mingw32/3.4.4/../../../../i686-pc-mingw32/lib/libmsvcrt.a(doxfs00717.o)
                0x0043fb68                _strcpy
 .text          0x0043fb70        0x8 /usr/lib/gcc/i686-pc-mingw32/3.4.4/../../../../i686-pc-mingw32/lib/libmsvcrt.a(doxfs00715.o)
                0x0043fb70                _strcmp
 .text          0x0043fb78        0x8 /usr/lib/gcc/i686-pc-mingw32/3.4.4/../../../../i686-pc-mingw32/lib/libmsvcrt.a(doxfs00137.o)
                0x0043fb78                __assert
 .text          0x0043fb80        0x8 /usr/lib/gcc/i686-pc-mingw32/3.4.4/../../../../i686-pc-mingw32/lib/libmsvcrt.a(doxfs00709.o)
                0x0043fb80                _sprintf
 .text          0x0043fb88        0x8 /usr/lib/gcc/i686-pc-mingw32/3.4.4/../../../../i686-pc-mingw32/lib/libmsvcrt.a(doxfs00591.o)
                0x0043fb88                _atof
 .text          0x0043fb90        0x0 /usr/lib/gcc/i686-pc-mingw32/3.4.4/../../../../i686-pc-mingw32/lib/libmsvcrt.a(doxfs00065.o)
 .text          0x0043fb90        0x0 /usr/lib/gcc/i686-pc-mingw32/3.4.4/../../../../i686-pc-mingw32/lib/libmsvcrt.a(doxfs00392.o)
 .text          0x0043fb90        0x8 /usr/lib/gcc/i686-pc-mingw32/3.4.4/../../../../i686-pc-mingw32/lib/libmsvcrt.a(doxfs00268.o)
                0x0043fb90                __isctype
 .text          0x0043fb98        0x8 /usr/lib/gcc/i686-pc-mingw32/3.4.4/../../../../i686-pc-mingw32/lib/libmsvcrt.a(doxfs00742.o)
                0x0043fb98                _tolower
 .text          0x0043fba0        0x8 /usr/lib/gcc/i686-pc-mingw32/3.4.4/../../../../i686-pc-mingw32/lib/libmsvcrt.a(doxfs00619.o)
                0x0043fba0                _fprintf
 .text          0x0043fba8        0x8 /usr/lib/gcc/i686-pc-mingw32/3.4.4/../../../../i686-pc-mingw32/lib/libmsvcrt.a(doxfs00607.o)
                0x0043fba8                _fclose
 .text          0x0043fbb0        0x8 /usr/lib/gcc/i686-pc-mingw32/3.4.4/../../../../i686-pc-mingw32/lib/libmsvcrt.a(doxfs00720.o)
                0x0043fbb0                _strftime
 .text          0x0043fbb8        0x8 /usr/lib/gcc/i686-pc-mingw32/3.4.4/../../../../i686-pc-mingw32/lib/libmsvcrt.a(doxfs00610.o)
                0x0043fbb8                _fflush
 .text          0x0043fbc0        0x8 /usr/lib/gcc/i686-pc-mingw32/3.4.4/../../../../i686-pc-mingw32/lib/libmsvcrt.a(doxfs00633.o)
                0x0043fbc0                _fwrite
 .text          0x0043fbc8        0x8 /usr/lib/gcc/i686-pc-mingw32/3.4.4/../../../../i686-pc-mingw32/lib/libmsvcrt.a(doxfs00625.o)
                0x0043fbc8                _free
 .text          0x0043fbd0        0x8 /usr/lib/gcc/i686-pc-mingw32/3.4.4/../../../../i686-pc-mingw32/lib/libmsvcrt.a(doxfs00698.o)
                0x0043fbd0                _realloc
 .text          0x0043fbd8        0x8 /usr/lib/gcc/i686-pc-mingw32/3.4.4/../../../../i686-pc-mingw32/lib/libmsvcrt.a(doxfs00676.o)
                0x0043fbd8                _malloc
 .text          0x0043fbe0        0x8 /usr/lib/gcc/i686-pc-mingw32/3.4.4/../../../../i686-pc-mingw32/lib/libmsvcrt.a(doxfs00613.o)
                0x0043fbe0                _fgets
 .text          0x0043fbe8        0x8 /usr/lib/gcc/i686-pc-mingw32/3.4.4/../../../../i686-pc-mingw32/lib/libmsvcrt.a(doxfs00490.o)
                0x0043fbe8                __vsnprintf
 .text          0x0043fbf0        0x8 /usr/lib/gcc/i686-pc-mingw32/3.4.4/../../../../i686-pc-mingw32/lib/libmsvcrt.a(doxfs00731.o)
                0x0043fbf0                _strtol
 .text          0x0043fbf8        0x8 /usr/lib/gcc/i686-pc-mingw32/3.4.4/../../../../i686-pc-mingw32/lib/libmsvcrt.a(doxfs00732.o)
                0x0043fbf8                _strtoul
 .text          0x0043fc00        0x8 /usr/lib/gcc/i686-pc-mingw32/3.4.4/../../../../i686-pc-mingw32/lib/libmsvcrt.a(doxfs00712.o)
                0x0043fc00                _sscanf
 .text          0x0043fc08        0x8 /usr/lib/gcc/i686-pc-mingw32/3.4.4/../../../../i686-pc-mingw32/lib/libmsvcrt.a(doxfs00695.o)
                0x0043fc08                _qsort
 .text          0x0043fc10        0x8 /usr/lib/gcc/i686-pc-mingw32/3.4.4/../../../../i686-pc-mingw32/lib/libmsvcrt.a(doxfs00722.o)
                0x0043fc10                _strncat
 .text          0x0043fc18        0x8 /usr/lib/gcc/i686-pc-mingw32/3.4.4/../../../../i686-pc-mingw32/lib/libmsvcrt.a(doxfs00730.o)
                0x0043fc18                _strtok
 .text          0x0043fc20        0x8 /usr/lib/gcc/i686-pc-mingw32/3.4.4/../../../../i686-pc-mingw32/lib/libmsvcrt.a(doxfs00743.o)
                0x0043fc20                _toupper
 .text          0x0043fc28        0x8 /usr/lib/gcc/i686-pc-mingw32/3.4.4/../../../../i686-pc-mingw32/lib/libmsvcrt.a(doxfs00713.o)
                0x0043fc28                _strcat
 .text          0x0043fc30        0x8 /usr/lib/gcc/i686-pc-mingw32/3.4.4/../../../../i686-pc-mingw32/lib/libmsvcrt.a(doxfs00726.o)
                0x0043fc30                _strrchr
 .text          0x0043fc38        0x8 /usr/lib/gcc/i686-pc-mingw32/3.4.4/../../../../i686-pc-mingw32/lib/libmsvcrt.a(doxfs00604.o)
                0x0043fc38                _exit
 .text          0x0043fc40        0x8 /usr/lib/gcc/i686-pc-mingw32/3.4.4/../../../../i686-pc-mingw32/lib/libmsvcrt.a(doxfs00718.o)
                0x0043fc40                _strcspn
 .text          0x0043fc48        0x8 /usr/lib/gcc/i686-pc-mingw32/3.4.4/../../../../i686-pc-mingw32/lib/libmsvcrt.a(doxfs00621.o)
                0x0043fc48                _fputs
 .text          0x0043fc50        0x8 /usr/lib/gcc/i686-pc-mingw32/3.4.4/../../../../i686-pc-mingw32/lib/libmsvcrt.a(doxfs00637.o)
                0x0043fc50                _getenv
 .text          0x0043fc58        0x8 /usr/lib/gcc/i686-pc-mingw32/3.4.4/../../../../i686-pc-mingw32/lib/libmsvcrt.a(doxfs00699.o)
                0x0043fc58                _remove
 .text          0x0043fc60        0x0 /usr/lib/gcc/i686-pc-mingw32/3.4.4/../../../../i686-pc-mingw32/lib/libmsvcrt.a(doxfh.o)
 .text          0x0043fc60        0x0 /usr/lib/gcc/i686-pc-mingw32/3.4.4/../../../../i686-pc-mingw32/lib/libmsvcrt.a(doxft.o)
 .text          0x0043fc60        0x8 /usr/lib/w32api/libkernel32.a(dyuhs00739.o)
                0x0043fc60                _SetUnhandledExceptionFilter@4
 .text          0x0043fc68        0x8 /usr/lib/w32api/libkernel32.a(dyuhs00156.o)
                0x0043fc68                _ExitProcess@4
 .text          0x0043fc70        0x8 /usr/lib/w32api/libkernel32.a(dyuhs00423.o)
                0x0043fc70                _GetTickCount@0
 .text          0x0043fc78        0x8 /usr/lib/w32api/libkernel32.a(dyuhs00559.o)
                0x0043fc78                _MulDiv@12
 .text          0x0043fc80        0x8 /usr/lib/w32api/libkernel32.a(dyuhs00226.o)
                0x0043fc80                _GetCPInfo@8
 .text          0x0043fc88        0x8 /usr/lib/w32api/libkernel32.a(dyuhs00351.o)
                0x0043fc88                _GetOEMCP@0
 .text          0x0043fc90        0x8 /usr/lib/w32api/libkernel32.a(dyuhs00327.o)
                0x0043fc90                _GetLocaleInfoA@16
 .text          0x0043fc98        0x8 /usr/lib/w32api/libkernel32.a(dyuhs00560.o)
                0x0043fc98                _MultiByteToWideChar@24
 .text          0x0043fca0        0x8 /usr/lib/w32api/libkernel32.a(dyuhs00512.o)
                0x0043fca0                _IsDBCSLeadByteEx@8
 .text          0x0043fca8        0x8 /usr/lib/w32api/libkernel32.a(dyuhs00448.o)
                0x0043fca8                _GlobalAlloc@8
 .text          0x0043fcb0        0x8 /usr/lib/w32api/libkernel32.a(dyuhs00459.o)
                0x0043fcb0                _GlobalLock@4
 .text          0x0043fcb8        0x8 /usr/lib/w32api/libkernel32.a(dyuhs00467.o)
                0x0043fcb8                _GlobalUnlock@4
 .text          0x0043fcc0        0x8 /usr/lib/w32api/libkernel32.a(dyuhs00455.o)
                0x0043fcc0                _GlobalFree@4
 .text          0x0043fcc8        0x8 /usr/lib/w32api/libkernel32.a(dyuhs00814.o)
                0x0043fcc8                _WideCharToMultiByte@32
 .text          0x0043fcd0        0x8 /usr/lib/w32api/libkernel32.a(dyuhs00018.o)
                0x0043fcd0                _Beep@8
 .text          0x0043fcd8        0x8 /usr/lib/w32api/libkernel32.a(dyuhs00524.o)
                0x0043fcd8                _LoadLibraryA@4
 .text          0x0043fce0        0x8 /usr/lib/w32api/libkernel32.a(dyuhs00364.o)
                0x0043fce0                _GetProcAddress@8
 .text          0x0043fce8        0x8 /usr/lib/w32api/libkernel32.a(dyuhs00335.o)
                0x0043fce8                _GetModuleFileNameA@12
 .text          0x0043fcf0        0x8 /usr/lib/w32api/libkernel32.a(dyuhs00085.o)
                0x0043fcf0                _CreateProcessA@40
 .text          0x0043fcf8        0x8 /usr/lib/w32api/libkernel32.a(dyuhs00038.o)
                0x0043fcf8                _CloseHandle@4
 .text          0x0043fd00        0x8 /usr/lib/w32api/libkernel32.a(dyuhs00069.o)
                0x0043fd00                _CreateFileMappingA@24
 .text          0x0043fd08        0x8 /usr/lib/w32api/libkernel32.a(dyuhs00546.o)
                0x0043fd08                _MapViewOfFile@20
 .text          0x0043fd10        0x8 /usr/lib/w32api/libkernel32.a(dyuhs00776.o)
                0x0043fd10                _UnmapViewOfFile@4
 .text          0x0043fd18        0x8 /usr/lib/w32api/libkernel32.a(dyuhs00616.o)
                0x0043fd18                _ReadFile@20
 .text          0x0043fd20        0x8 /usr/lib/w32api/libkernel32.a(dyuhs00698.o)
                0x0043fd20                _SetEvent@4
 .text          0x0043fd28        0x8 /usr/lib/w32api/libkernel32.a(dyuhs00810.o)
                0x0043fd28                _WaitForSingleObject@8
 .text          0x0043fd30        0x8 /usr/lib/w32api/libkernel32.a(dyuhs00325.o)
                0x0043fd30                _GetLastError@0
 .text          0x0043fd38        0x8 /usr/lib/w32api/libkernel32.a(dyuhs00352.o)
                0x0043fd38                _GetOverlappedResult@16
 .text          0x0043fd40        0x8 /usr/lib/w32api/libkernel32.a(dyuhs00064.o)
                0x0043fd40                _CreateEventA@16
 .text          0x0043fd48        0x8 /usr/lib/w32api/libkernel32.a(dyuhs00827.o)
                0x0043fd48                _WriteFile@20
 .text          0x0043fd50        0x8 /usr/lib/w32api/libkernel32.a(dyuhs00091.o)
                0x0043fd50                _CreateThread@24
 .text          0x0043fd58        0x8 /usr/lib/w32api/libkernel32.a(dyuhs00433.o)
                0x0043fd58                _GetVersionExA@4
 .text          0x0043fd60        0x8 /usr/lib/w32api/libkernel32.a(dyuhs00009.o)
                0x0043fd60                _AllocConsole@0
 .text          0x0043fd68        0x8 /usr/lib/w32api/libkernel32.a(dyuhs00388.o)
                0x0043fd68                _GetStdHandle@4
 .text          0x0043fd70        0x8 /usr/lib/w32api/libkernel32.a(dyuhs00214.o)
                0x0043fd70                _FreeLibrary@4
 .text          0x0043fd78        0x8 /usr/lib/w32api/libkernel32.a(dyuhs00084.o)
                0x0043fd78                _CreatePipe@16
 .text          0x0043fd80        0x8 /usr/lib/w32api/libkernel32.a(dyuhs00710.o)
                0x0043fd80                _SetHandleInformation@12
 .text          0x0043fd88        0x8 /usr/lib/w32api/libkernel32.a(dyuhs00035.o)
                0x0043fd88                _ClearCommBreak@4
 .text          0x0043fd90        0x8 /usr/lib/w32api/libkernel32.a(dyuhs00235.o)
                0x0043fd90                _GetCommState@8
 .text          0x0043fd98        0x8 /usr/lib/w32api/libkernel32.a(dyuhs00655.o)
                0x0043fd98                _SetCommState@8
 .text          0x0043fda0        0x8 /usr/lib/w32api/libkernel32.a(dyuhs00656.o)
                0x0043fda0                _SetCommTimeouts@8
 .text          0x0043fda8        0x8 /usr/lib/w32api/libkernel32.a(dyuhs00068.o)
                0x0043fda8                _CreateFileA@28
 .text          0x0043fdb0        0x8 /usr/lib/w32api/libkernel32.a(dyuhs00652.o)
                0x0043fdb0                _SetCommBreak@4
 .text          0x0043fdb8        0x8 /usr/lib/w32api/libkernel32.a(dyuhs00303.o)
                0x0043fdb8                _GetEnvironmentVariableA@12
 .text          0x0043fdc0        0x8 /usr/lib/w32api/libkernel32.a(dyuhs00443.o)
                0x0043fdc0                _GetWindowsDirectoryA@8
 .text          0x0043fdc8        0x8 /usr/lib/w32api/libkernel32.a(dyuhs00326.o)
                0x0043fdc8                _GetLocalTime@4
 .text          0x0043fdd0        0x8 /usr/lib/w32api/libkernel32.a(dyuhs00220.o)
                0x0043fdd0                _GetACP@0
 .text          0x0043fdd8        0x8 /usr/lib/w32api/libkernel32.a(dyuhs00281.o)
                0x0043fdd8                _GetCurrentDirectoryA@8
 .text          0x0043fde0        0x8 /usr/lib/w32api/libkernel32.a(dyuhs00688.o)
                0x0043fde0                _SetCurrentDirectoryA@4
 .text          0x0043fde8        0x8 /usr/lib/w32api/libkernel32.a(dyuhs00237.o)
                0x0043fde8                _GetCommandLineA@0
 .text          0x0043fdf0        0x8 /usr/lib/w32api/libkernel32.a(dyuhs00386.o)
                0x0043fdf0                _GetStartupInfoA@4
 .text          0x0043fdf8        0x8 /usr/lib/w32api/libkernel32.a(dyuhs00337.o)
                0x0043fdf8                _GetModuleHandleA@4
 .text          0x0043fe00        0x0 /usr/lib/w32api/libkernel32.a(dyuhh.o)
 .text          0x0043fe00        0x0 /usr/lib/w32api/libkernel32.a(dyuht.o)
 *(SORT(.text$*))
 *(.glue_7t)
 *(.glue_7)
                0x0043fe00                ___CTOR_LIST__ = .
                0x0043fe00                __CTOR_LIST__ = .
                0x0043fe00        0x4 LONG 0xffffffff
 *(.ctors)
 *(.ctor)
 *(SORT(.ctors.*))
                0x0043fe04        0x4 LONG 0x0
                0x0043fe08                ___DTOR_LIST__ = .
                0x0043fe08                __DTOR_LIST__ = .
                0x0043fe08        0x4 LONG 0xffffffff
 *(.dtors)
 *(.dtor)
 *(SORT(.dtors.*))
                0x0043fe0c        0x4 LONG 0x0
 *(.fini)
 *(.gcc_exc)
                0x0043fe10                PROVIDE (etext, .)
 *(.gcc_except_table)

.data           0x00440000      0x400
                0x00440000                __data_start__ = .
 *(.data)
 .data          0x00440000        0x0 /usr/lib/gcc/i686-pc-mingw32/3.4.4/../../../../i686-pc-mingw32/lib/crt2.o
 .data          0x00440000       0x40 be_nos_s.o
                0x00440000                _backends
 .data          0x00440040        0x0 cmdline.o
 .data          0x00440040        0x0 config.o
 .data          0x00440040        0x0 dialog.o
 .data          0x00440040        0x0 ldisc.o
 .data          0x00440040        0x0 ldiscucs.o
 .data          0x00440040        0x0 logging.o
 .data          0x00440040        0x0 minibidi.o
 .data          0x00440040        0x0 misc.o
 .data          0x00440040        0x0 nocproxy.o
 .data          0x00440040        0x0 pinger.o
 .data          0x00440040        0x0 proxy.o
 .data          0x00440040       0x60 raw.o
                0x00440040                _raw_backend
 .data          0x004400a0       0x60 rlogin.o
                0x004400a0                _rlogin_backend
 .data          0x00440100        0x0 sercfg.o
 .data          0x00440100        0x0 settings.o
 .data          0x00440100        0x0 sizetip.o
 .data          0x00440100       0x60 telnet.o
                0x00440100                _telnet_backend
 .data          0x00440160        0x4 terminal.o
                0x00440160                _EMPTY_WINDOW_TITLE
 *fill*         0x00440164       0x1c 00
 .data          0x00440180       0xc0 testback.o
                0x004401e0                _null_backend
                0x00440180                _loop_backend
 .data          0x00440240        0x0 timing.o
 .data          0x00440240        0x0 tree234.o
 .data          0x00440240       0x80 version.o
                0x00440240                _sshver
                0x00440280                _ver
 .data          0x004402c0        0x0 wcwidth.o
 .data          0x004402c0        0x0 wincfg.o
 .data          0x004402c0        0x0 winctrls.o
 .data          0x004402c0        0x0 windefs.o
 .data          0x004402c0       0x14 windlg.o
 .data          0x004402d4       0x14 window.o
 .data          0x004402e8        0x0 winhandl.o
 .data          0x004402e8        0x0 winhelp.o
 .data          0x004402e8        0x4 winmisc.o
 .data          0x004402ec        0x0 winnet.o
 .data          0x004402ec        0x0 winprint.o
 .data          0x004402ec        0x0 winproxy.o
 *fill*         0x004402ec       0x14 00
 .data          0x00440300       0x60 winser.o
                0x00440300                _serial_backend
 .data          0x00440360        0x0 winstore.o
 .data          0x00440360        0x0 wintime.o
 .data          0x00440360        0x0 winucs.o
 .data          0x00440360        0x0 winutils.o
 .data          0x00440360        0x0 /usr/lib/w32api/libadvapi32.a(dykgs00245.o)
 .data          0x00440360        0x0 /usr/lib/w32api/libadvapi32.a(dykgs00389.o)
 .data          0x00440360        0x0 /usr/lib/w32api/libadvapi32.a(dykgs00386.o)
 .data          0x00440360        0x0 /usr/lib/w32api/libadvapi32.a(dykgs00434.o)
 .data          0x00440360        0x0 /usr/lib/w32api/libadvapi32.a(dykgs00412.o)
 .data          0x00440360        0x0 /usr/lib/w32api/libadvapi32.a(dykgs00423.o)
 .data          0x00440360        0x0 /usr/lib/w32api/libadvapi32.a(dykgs00393.o)
 .data          0x00440360        0x0 /usr/lib/w32api/libadvapi32.a(dykgs00400.o)
 .data          0x00440360        0x0 /usr/lib/w32api/libadvapi32.a(dykgh.o)
 .data          0x00440360        0x0 /usr/lib/w32api/libadvapi32.a(dykgt.o)
 .data          0x00440360        0x0 /usr/lib/w32api/libcomctl32.a(dkzhs00094.o)
 .data          0x00440360        0x0 /usr/lib/w32api/libcomctl32.a(dkzhs00093.o)
 .data          0x00440360        0x0 /usr/lib/w32api/libcomctl32.a(dkzhs00041.o)
 .data          0x00440360        0x0 /usr/lib/w32api/libcomctl32.a(dkzhs00091.o)
 .data          0x00440360        0x0 /usr/lib/w32api/libcomctl32.a(dkzhh.o)
 .data          0x00440360        0x0 /usr/lib/w32api/libcomctl32.a(dkzht.o)
 .data          0x00440360        0x0 /usr/lib/w32api/libcomdlg32.a(dmycs00002.o)
 .data          0x00440360        0x0 /usr/lib/w32api/libcomdlg32.a(dmycs00000.o)
 .data          0x00440360        0x0 /usr/lib/w32api/libcomdlg32.a(dmycs00011.o)
 .data          0x00440360        0x0 /usr/lib/w32api/libcomdlg32.a(dmycs00009.o)
 .data          0x00440360        0x0 /usr/lib/w32api/libcomdlg32.a(dmych.o)
 .data          0x00440360        0x0 /usr/lib/w32api/libcomdlg32.a(dmyct.o)
 .data          0x00440360        0x0 /usr/lib/w32api/libgdi32.a(dyohs00034.o)
 .data          0x00440360        0x0 /usr/lib/w32api/libgdi32.a(dyohs00279.o)
 .data          0x00440360        0x0 /usr/lib/w32api/libgdi32.a(dyohs00211.o)
 .data          0x00440360        0x0 /usr/lib/w32api/libgdi32.a(dyohs00070.o)
 .data          0x00440360        0x0 /usr/lib/w32api/libgdi32.a(dyohs00199.o)
 .data          0x00440360        0x0 /usr/lib/w32api/libgdi32.a(dyohs00067.o)
 .data          0x00440360        0x0 /usr/lib/w32api/libgdi32.a(dyohs00261.o)
 .data          0x00440360        0x0 /usr/lib/w32api/libgdi32.a(dyohs00321.o)
 .data          0x00440360        0x0 /usr/lib/w32api/libgdi32.a(dyohs00285.o)
 .data          0x00440360        0x0 /usr/lib/w32api/libgdi32.a(dyohs00337.o)
 .data          0x00440360        0x0 /usr/lib/w32api/libgdi32.a(dyohs00073.o)
 .data          0x00440360        0x0 /usr/lib/w32api/libgdi32.a(dyohs00047.o)
 .data          0x00440360        0x0 /usr/lib/w32api/libgdi32.a(dyohs00146.o)
 .data          0x00440360        0x0 /usr/lib/w32api/libgdi32.a(dyohs00304.o)
 .data          0x00440360        0x0 /usr/lib/w32api/libgdi32.a(dyohs00208.o)
 .data          0x00440360        0x0 /usr/lib/w32api/libgdi32.a(dyohs00056.o)
 .data          0x00440360        0x0 /usr/lib/w32api/libgdi32.a(dyohs00280.o)
 .data          0x00440360        0x0 /usr/lib/w32api/libgdi32.a(dyohs00258.o)
 .data          0x00440360        0x0 /usr/lib/w32api/libgdi32.a(dyohs00046.o)
 .data          0x00440360        0x0 /usr/lib/w32api/libgdi32.a(dyohs00217.o)
 .data          0x00440360        0x0 /usr/lib/w32api/libgdi32.a(dyohs00183.o)
 .data          0x00440360        0x0 /usr/lib/w32api/libgdi32.a(dyohs00339.o)
 .data          0x00440360        0x0 /usr/lib/w32api/libgdi32.a(dyohs00033.o)
 .data          0x00440360        0x0 /usr/lib/w32api/libgdi32.a(dyohs00319.o)
 .data          0x00440360        0x0 /usr/lib/w32api/libgdi32.a(dyohs00286.o)
 .data          0x00440360        0x0 /usr/lib/w32api/libgdi32.a(dyohs00102.o)
 .data          0x00440360        0x0 /usr/lib/w32api/libgdi32.a(dyohs00190.o)
 .data          0x00440360        0x0 /usr/lib/w32api/libgdi32.a(dyohs00058.o)
 .data          0x00440360        0x0 /usr/lib/w32api/libgdi32.a(dyohs00232.o)
 .data          0x00440360        0x0 /usr/lib/w32api/libgdi32.a(dyohs00229.o)
 .data          0x00440360        0x0 /usr/lib/w32api/libgdi32.a(dyohs00103.o)
 .data          0x00440360        0x0 /usr/lib/w32api/libgdi32.a(dyohs00136.o)
 .data          0x00440360        0x0 /usr/lib/w32api/libgdi32.a(dyohs00254.o)
 .data          0x00440360        0x0 /usr/lib/w32api/libgdi32.a(dyohs00310.o)
 .data          0x00440360        0x0 /usr/lib/w32api/libgdi32.a(dyohs00130.o)
 .data          0x00440360        0x0 /usr/lib/w32api/libgdi32.a(dyohs00134.o)
 .data          0x00440360        0x0 /usr/lib/w32api/libgdi32.a(dyohs00129.o)
 .data          0x00440360        0x0 /usr/lib/w32api/libgdi32.a(dyohs00131.o)
 .data          0x00440360        0x0 /usr/lib/w32api/libgdi32.a(dyohs00309.o)
 .data          0x00440360        0x0 /usr/lib/w32api/libgdi32.a(dyohs00340.o)
 .data          0x00440360        0x0 /usr/lib/w32api/libgdi32.a(dyohs00028.o)
 .data          0x00440360        0x0 /usr/lib/w32api/libgdi32.a(dyohs00225.o)
 .data          0x00440360        0x0 /usr/lib/w32api/libgdi32.a(dyohs00096.o)
 .data          0x00440360        0x0 /usr/lib/w32api/libgdi32.a(dyohs00341.o)
 .data          0x00440360        0x0 /usr/lib/w32api/libgdi32.a(dyohh.o)
 .data          0x00440360        0x0 /usr/lib/w32api/libgdi32.a(dyoht.o)
 .data          0x00440360        0x0 /usr/lib/w32api/libimm32.a(dasfs00025.o)
 .data          0x00440360        0x0 /usr/lib/w32api/libimm32.a(dasfs00065.o)
 .data          0x00440360        0x0 /usr/lib/w32api/libimm32.a(dasfs00059.o)
 .data          0x00440360        0x0 /usr/lib/w32api/libimm32.a(dasfs00061.o)
 .data          0x00440360        0x0 /usr/lib/w32api/libimm32.a(dasfs00023.o)
 .data          0x00440360        0x0 /usr/lib/w32api/libimm32.a(dasfh.o)
 .data          0x00440360        0x0 /usr/lib/w32api/libimm32.a(dasft.o)
 .data          0x00440360        0x0 /usr/lib/w32api/libshell32.a(dsdfs00143.o)
 .data          0x00440360        0x0 /usr/lib/w32api/libshell32.a(dsdfh.o)
 .data          0x00440360        0x0 /usr/lib/w32api/libshell32.a(dsdft.o)
 .data          0x00440360        0x0 /usr/lib/w32api/libuser32.a(dwxfs00133.o)
 .data          0x00440360        0x0 /usr/lib/w32api/libuser32.a(dwxfs00568.o)
 .data          0x00440360        0x0 /usr/lib/w32api/libuser32.a(dwxfs00368.o)
 .data          0x00440360        0x0 /usr/lib/w32api/libuser32.a(dwxfs00011.o)
 .data          0x00440360        0x0 /usr/lib/w32api/libuser32.a(dwxfs00235.o)
 .data          0x00440360        0x0 /usr/lib/w32api/libuser32.a(dwxfs00349.o)
 .data          0x00440360        0x0 /usr/lib/w32api/libuser32.a(dwxfs00348.o)
 .data          0x00440360        0x0 /usr/lib/w32api/libuser32.a(dwxfs00183.o)
 .data          0x00440360        0x0 /usr/lib/w32api/libuser32.a(dwxfs00346.o)
 .data          0x00440360        0x0 /usr/lib/w32api/libuser32.a(dwxfs00089.o)
 .data          0x00440360        0x0 /usr/lib/w32api/libuser32.a(dwxfs00581.o)
 .data          0x00440360        0x0 /usr/lib/w32api/libuser32.a(dwxfs00322.o)
 .data          0x00440360        0x0 /usr/lib/w32api/libuser32.a(dwxfs00587.o)
 .data          0x00440360        0x0 /usr/lib/w32api/libuser32.a(dwxfs00570.o)
 .data          0x00440360        0x0 /usr/lib/w32api/libuser32.a(dwxfs00476.o)
 .data          0x00440360        0x0 /usr/lib/w32api/libuser32.a(dwxfs00143.o)
 .data          0x00440360        0x0 /usr/lib/w32api/libuser32.a(dwxfs00224.o)
 .data          0x00440360        0x0 /usr/lib/w32api/libuser32.a(dwxfs00504.o)
 .data          0x00440360        0x0 /usr/lib/w32api/libuser32.a(dwxfs00423.o)
 .data          0x00440360        0x0 /usr/lib/w32api/libuser32.a(dwxfs00247.o)
 .data          0x00440360        0x0 /usr/lib/w32api/libuser32.a(dwxfs00490.o)
 .data          0x00440360        0x0 /usr/lib/w32api/libuser32.a(dwxfs00501.o)
 .data          0x00440360        0x0 /usr/lib/w32api/libuser32.a(dwxfs00565.o)
 .data          0x00440360        0x0 /usr/lib/w32api/libuser32.a(dwxfs00430.o)
 .data          0x00440360        0x0 /usr/lib/w32api/libuser32.a(dwxfs00056.o)
 .data          0x00440360        0x0 /usr/lib/w32api/libuser32.a(dwxfs00384.o)
 .data          0x00440360        0x0 /usr/lib/w32api/libuser32.a(dwxfs00053.o)
 .data          0x00440360        0x0 /usr/lib/w32api/libuser32.a(dwxfs00526.o)
 .data          0x00440360        0x0 /usr/lib/w32api/libuser32.a(dwxfs00254.o)
 .data          0x00440360        0x0 /usr/lib/w32api/libuser32.a(dwxfs00487.o)
 .data          0x00440360        0x0 /usr/lib/w32api/libuser32.a(dwxfs00162.o)
 .data          0x00440360        0x0 /usr/lib/w32api/libuser32.a(dwxfs00513.o)
 .data          0x00440360        0x0 /usr/lib/w32api/libuser32.a(dwxfs00252.o)
 .data          0x00440360        0x0 /usr/lib/w32api/libuser32.a(dwxfs00529.o)
 .data          0x00440360        0x0 /usr/lib/w32api/libuser32.a(dwxfs00431.o)
 .data          0x00440360        0x0 /usr/lib/w32api/libuser32.a(dwxfs00345.o)
 .data          0x00440360        0x0 /usr/lib/w32api/libuser32.a(dwxfs00567.o)
 .data          0x00440360        0x0 /usr/lib/w32api/libuser32.a(dwxfs00303.o)
 .data          0x00440360        0x0 /usr/lib/w32api/libuser32.a(dwxfs00512.o)
 .data          0x00440360        0x0 /usr/lib/w32api/libuser32.a(dwxfs00181.o)
 .data          0x00440360        0x0 /usr/lib/w32api/libuser32.a(dwxfs00179.o)
 .data          0x00440360        0x0 /usr/lib/w32api/libuser32.a(dwxfs00146.o)
 .data          0x00440360        0x0 /usr/lib/w32api/libuser32.a(dwxfs00126.o)
 .data          0x00440360        0x0 /usr/lib/w32api/libuser32.a(dwxfs00402.o)
 .data          0x00440360        0x0 /usr/lib/w32api/libuser32.a(dwxfs00079.o)
 .data          0x00440360        0x0 /usr/lib/w32api/libuser32.a(dwxfs00292.o)
 .data          0x00440360        0x0 /usr/lib/w32api/libuser32.a(dwxfs00340.o)
 .data          0x00440360        0x0 /usr/lib/w32api/libuser32.a(dwxfs00382.o)
 .data          0x00440360        0x0 /usr/lib/w32api/libuser32.a(dwxfs00148.o)
 .data          0x00440360        0x0 /usr/lib/w32api/libuser32.a(dwxfs00465.o)
 .data          0x00440360        0x0 /usr/lib/w32api/libuser32.a(dwxfs00489.o)
 .data          0x00440360        0x0 /usr/lib/w32api/libuser32.a(dwxfs00223.o)
 .data          0x00440360        0x0 /usr/lib/w32api/libuser32.a(dwxfs00406.o)
 .data          0x00440360        0x0 /usr/lib/w32api/libuser32.a(dwxfs00249.o)
 .data          0x00440360        0x0 /usr/lib/w32api/libuser32.a(dwxfs00442.o)
 .data          0x00440360        0x0 /usr/lib/w32api/libuser32.a(dwxfs00136.o)
 .data          0x00440360        0x0 /usr/lib/w32api/libuser32.a(dwxfs00006.o)
 .data          0x00440360        0x0 /usr/lib/w32api/libuser32.a(dwxfs00362.o)
 .data          0x00440360        0x0 /usr/lib/w32api/libuser32.a(dwxfs00088.o)
 .data          0x00440360        0x0 /usr/lib/w32api/libuser32.a(dwxfs00516.o)
 .data          0x00440360        0x0 /usr/lib/w32api/libuser32.a(dwxfs00521.o)
 .data          0x00440360        0x0 /usr/lib/w32api/libuser32.a(dwxfs00578.o)
 .data          0x00440360        0x0 /usr/lib/w32api/libuser32.a(dwxfs00272.o)
 .data          0x00440360        0x0 /usr/lib/w32api/libuser32.a(dwxfs00397.o)
 .data          0x00440360        0x0 /usr/lib/w32api/libuser32.a(dwxfs00559.o)
 .data          0x00440360        0x0 /usr/lib/w32api/libuser32.a(dwxfs00395.o)
 .data          0x00440360        0x0 /usr/lib/w32api/libuser32.a(dwxfs00515.o)
 .data          0x00440360        0x0 /usr/lib/w32api/libuser32.a(dwxfs00387.o)
 .data          0x00440360        0x0 /usr/lib/w32api/libuser32.a(dwxfs00550.o)
 .data          0x00440360        0x0 /usr/lib/w32api/libuser32.a(dwxfs00452.o)
 .data          0x00440360        0x0 /usr/lib/w32api/libuser32.a(dwxfs00176.o)
 .data          0x00440360        0x0 /usr/lib/w32api/libuser32.a(dwxfs00519.o)
 .data          0x00440360        0x0 /usr/lib/w32api/libuser32.a(dwxfs00061.o)
 .data          0x00440360        0x0 /usr/lib/w32api/libuser32.a(dwxfs00480.o)
 .data          0x00440360        0x0 /usr/lib/w32api/libuser32.a(dwxfs00237.o)
 .data          0x00440360        0x0 /usr/lib/w32api/libuser32.a(dwxfs00213.o)
 .data          0x00440360        0x0 /usr/lib/w32api/libuser32.a(dwxfs00073.o)
 .data          0x00440360        0x0 /usr/lib/w32api/libuser32.a(dwxfs00256.o)
 .data          0x00440360        0x0 /usr/lib/w32api/libuser32.a(dwxfs00324.o)
 .data          0x00440360        0x0 /usr/lib/w32api/libuser32.a(dwxfs00087.o)
 .data          0x00440360        0x0 /usr/lib/w32api/libuser32.a(dwxfs00268.o)
 .data          0x00440360        0x0 /usr/lib/w32api/libuser32.a(dwxfs00530.o)
 .data          0x00440360        0x0 /usr/lib/w32api/libuser32.a(dwxfs00258.o)
 .data          0x00440360        0x0 /usr/lib/w32api/libuser32.a(dwxfs00617.o)
 .data          0x00440360        0x0 /usr/lib/w32api/libuser32.a(dwxfs00443.o)
 .data          0x00440360        0x0 /usr/lib/w32api/libuser32.a(dwxfs00461.o)
 .data          0x00440360        0x0 /usr/lib/w32api/libuser32.a(dwxfs00391.o)
 .data          0x00440360        0x0 /usr/lib/w32api/libuser32.a(dwxfs00054.o)
 .data          0x00440360        0x0 /usr/lib/w32api/libuser32.a(dwxfs00139.o)
 .data          0x00440360        0x0 /usr/lib/w32api/libuser32.a(dwxfs00177.o)
 .data          0x00440360        0x0 /usr/lib/w32api/libuser32.a(dwxfs00604.o)
 .data          0x00440360        0x0 /usr/lib/w32api/libuser32.a(dwxfs00246.o)
 .data          0x00440360        0x0 /usr/lib/w32api/libuser32.a(dwxfs00295.o)
 .data          0x00440360        0x0 /usr/lib/w32api/libuser32.a(dwxfs00598.o)
 .data          0x00440360        0x0 /usr/lib/w32api/libuser32.a(dwxfs00463.o)
 .data          0x00440360        0x0 /usr/lib/w32api/libuser32.a(dwxfs00577.o)
 .data          0x00440360        0x0 /usr/lib/w32api/libuser32.a(dwxfs00531.o)
 .data          0x00440360        0x0 /usr/lib/w32api/libuser32.a(dwxfs00594.o)
 .data          0x00440360        0x0 /usr/lib/w32api/libuser32.a(dwxfs00356.o)
 .data          0x00440360        0x0 /usr/lib/w32api/libuser32.a(dwxfs00627.o)
 .data          0x00440360        0x0 /usr/lib/w32api/libuser32.a(dwxfs00434.o)
 .data          0x00440360        0x0 /usr/lib/w32api/libuser32.a(dwxfh.o)
 .data          0x00440360        0x0 /usr/lib/w32api/libuser32.a(dwxft.o)
 .data          0x00440360        0x0 /usr/lib/w32api/libwinmm.a(dumfs00008.o)
 .data          0x00440360        0x0 /usr/lib/w32api/libwinmm.a(dumfh.o)
 .data          0x00440360        0x0 /usr/lib/w32api/libwinmm.a(dumft.o)
 .data          0x00440360        0x0 /usr/lib/w32api/libwinspool.a(dwbds00078.o)
 .data          0x00440360        0x0 /usr/lib/w32api/libwinspool.a(dwbds00102.o)
 .data          0x00440360        0x0 /usr/lib/w32api/libwinspool.a(dwbds00126.o)
 .data          0x00440360        0x0 /usr/lib/w32api/libwinspool.a(dwbds00128.o)
 .data          0x00440360        0x0 /usr/lib/w32api/libwinspool.a(dwbds00025.o)
 .data          0x00440360        0x0 /usr/lib/w32api/libwinspool.a(dwbds00059.o)
 .data          0x00440360        0x0 /usr/lib/w32api/libwinspool.a(dwbds00130.o)
 .data          0x00440360        0x0 /usr/lib/w32api/libwinspool.a(dwbds00060.o)
 .data          0x00440360        0x0 /usr/lib/w32api/libwinspool.a(dwbdh.o)
 .data          0x00440360        0x0 /usr/lib/w32api/libwinspool.a(dwbdt.o)
 .data          0x00440360        0x4 /usr/lib/gcc/i686-pc-mingw32/3.4.4/../../../../i686-pc-mingw32/lib/libmingw32.a(CRTglob.o)
                0x00440360                __CRT_glob
 .data          0x00440364        0x0 /usr/lib/gcc/i686-pc-mingw32/3.4.4/../../../../i686-pc-mingw32/lib/libmingw32.a(CRTfmode.o)
 .data          0x00440364        0x4 /usr/lib/gcc/i686-pc-mingw32/3.4.4/../../../../i686-pc-mingw32/lib/libmingw32.a(txtmode.o)
                0x00440364                __fmode
 .data          0x00440368        0x0 /usr/lib/gcc/i686-pc-mingw32/3.4.4/../../../../i686-pc-mingw32/lib/libmingw32.a(main.o)
 .data          0x00440368        0x4 /usr/lib/gcc/i686-pc-mingw32/3.4.4/../../../../i686-pc-mingw32/lib/libmingw32.a(gccmain.o)
 .data          0x0044036c        0x0 /usr/lib/gcc/i686-pc-mingw32/3.4.4/../../../../i686-pc-mingw32/lib/libmingw32.a(pseudo-reloc.o)
 .data          0x0044036c        0x0 /usr/lib/gcc/i686-pc-mingw32/3.4.4/../../../../i686-pc-mingw32/lib/libmingw32.a(cpu_features.o)
 .data          0x0044036c        0x0 /usr/lib/gcc/i686-pc-mingw32/3.4.4/../../../../i686-pc-mingw32/lib/libmingw32.a(CRT_fp10.o)
 .data          0x0044036c        0x0 /usr/lib/gcc/i686-pc-mingw32/3.4.4/../../../../i686-pc-mingw32/lib/libmingw32.a(pseudo-reloc-list.o)
 .data          0x0044036c        0x0 /usr/lib/gcc/i686-pc-mingw32/3.4.4/libgcc.a(_chkstk.o)
 .data          0x0044036c        0x0 /usr/lib/gcc/i686-pc-mingw32/3.4.4/libgcc.a(_ctors.o)
 .data          0x0044036c        0x0 /usr/lib/gcc/i686-pc-mingw32/3.4.4/../../../../i686-pc-mingw32/lib/libmoldname.a(dctgs00084.o)
 .data          0x0044036c        0x0 /usr/lib/gcc/i686-pc-mingw32/3.4.4/../../../../i686-pc-mingw32/lib/libmoldname.a(dctgh.o)
 .data          0x0044036c        0x0 /usr/lib/gcc/i686-pc-mingw32/3.4.4/../../../../i686-pc-mingw32/lib/libmoldname.a(dctgt.o)
 .data          0x0044036c        0x0 /usr/lib/gcc/i686-pc-mingw32/3.4.4/../../../../i686-pc-mingw32/lib/libmsvcrt.a(doxfs00266.o)
 .data          0x0044036c        0x0 /usr/lib/gcc/i686-pc-mingw32/3.4.4/../../../../i686-pc-mingw32/lib/libmsvcrt.a(doxfs00099.o)
 .data          0x0044036c        0x0 /usr/lib/gcc/i686-pc-mingw32/3.4.4/../../../../i686-pc-mingw32/lib/libmsvcrt.a(doxfs00590.o)
 .data          0x0044036c        0x0 /usr/lib/gcc/i686-pc-mingw32/3.4.4/../../../../i686-pc-mingw32/lib/libmsvcrt.a(doxfs00383.o)
 .data          0x0044036c        0x0 /usr/lib/gcc/i686-pc-mingw32/3.4.4/../../../../i686-pc-mingw32/lib/libmsvcrt.a(doxfs00147.o)
 .data          0x0044036c        0x0 /usr/lib/gcc/i686-pc-mingw32/3.4.4/../../../../i686-pc-mingw32/lib/libmsvcrt.a(doxfs00077.o)
 .data          0x0044036c        0x0 /usr/lib/gcc/i686-pc-mingw32/3.4.4/../../../../i686-pc-mingw32/lib/libmsvcrt.a(doxfs00706.o)
 .data          0x0044036c        0x0 /usr/lib/gcc/i686-pc-mingw32/3.4.4/../../../../i686-pc-mingw32/lib/libmsvcrt.a(doxfs00079.o)
 .data          0x0044036c        0x0 /usr/lib/gcc/i686-pc-mingw32/3.4.4/../../../../i686-pc-mingw32/lib/libmsvcrt.a(doxfs00426.o)
 .data          0x0044036c        0x0 /usr/lib/gcc/i686-pc-mingw32/3.4.4/../../../../i686-pc-mingw32/lib/libmsvcrt.a(doxfs00055.o)
 .data          0x0044036c        0x0 /usr/lib/gcc/i686-pc-mingw32/3.4.4/../../../../i686-pc-mingw32/lib/libmsvcrt.a(doxfs00684.o)
 .data          0x0044036c        0x0 /usr/lib/gcc/i686-pc-mingw32/3.4.4/../../../../i686-pc-mingw32/lib/libmsvcrt.a(doxfs00611.o)
 .data          0x0044036c        0x0 /usr/lib/gcc/i686-pc-mingw32/3.4.4/../../../../i686-pc-mingw32/lib/libmsvcrt.a(doxfs00592.o)
 .data          0x0044036c        0x0 /usr/lib/gcc/i686-pc-mingw32/3.4.4/../../../../i686-pc-mingw32/lib/libmsvcrt.a(doxfs00714.o)
 .data          0x0044036c        0x0 /usr/lib/gcc/i686-pc-mingw32/3.4.4/../../../../i686-pc-mingw32/lib/libmsvcrt.a(doxfs00721.o)
 .data          0x0044036c        0x0 /usr/lib/gcc/i686-pc-mingw32/3.4.4/../../../../i686-pc-mingw32/lib/libmsvcrt.a(doxfs00724.o)
 .data          0x0044036c        0x0 /usr/lib/gcc/i686-pc-mingw32/3.4.4/../../../../i686-pc-mingw32/lib/libmsvcrt.a(doxfs00618.o)
 .data          0x0044036c        0x0 /usr/lib/gcc/i686-pc-mingw32/3.4.4/../../../../i686-pc-mingw32/lib/libmsvcrt.a(doxfs00682.o)
 .data          0x0044036c        0x0 /usr/lib/gcc/i686-pc-mingw32/3.4.4/../../../../i686-pc-mingw32/lib/libmsvcrt.a(doxfs00683.o)
 .data          0x0044036c        0x0 /usr/lib/gcc/i686-pc-mingw32/3.4.4/../../../../i686-pc-mingw32/lib/libmsvcrt.a(doxfs00723.o)
 .data          0x0044036c        0x0 /usr/lib/gcc/i686-pc-mingw32/3.4.4/../../../../i686-pc-mingw32/lib/libmsvcrt.a(doxfs00717.o)
 .data          0x0044036c        0x0 /usr/lib/gcc/i686-pc-mingw32/3.4.4/../../../../i686-pc-mingw32/lib/libmsvcrt.a(doxfs00715.o)
 .data          0x0044036c        0x0 /usr/lib/gcc/i686-pc-mingw32/3.4.4/../../../../i686-pc-mingw32/lib/libmsvcrt.a(doxfs00137.o)
 .data          0x0044036c        0x0 /usr/lib/gcc/i686-pc-mingw32/3.4.4/../../../../i686-pc-mingw32/lib/libmsvcrt.a(doxfs00709.o)
 .data          0x0044036c        0x0 /usr/lib/gcc/i686-pc-mingw32/3.4.4/../../../../i686-pc-mingw32/lib/libmsvcrt.a(doxfs00591.o)
 .data          0x0044036c        0x0 /usr/lib/gcc/i686-pc-mingw32/3.4.4/../../../../i686-pc-mingw32/lib/libmsvcrt.a(doxfs00065.o)
 .data          0x0044036c        0x0 /usr/lib/gcc/i686-pc-mingw32/3.4.4/../../../../i686-pc-mingw32/lib/libmsvcrt.a(doxfs00392.o)
 .data          0x0044036c        0x0 /usr/lib/gcc/i686-pc-mingw32/3.4.4/../../../../i686-pc-mingw32/lib/libmsvcrt.a(doxfs00268.o)
 .data          0x0044036c        0x0 /usr/lib/gcc/i686-pc-mingw32/3.4.4/../../../../i686-pc-mingw32/lib/libmsvcrt.a(doxfs00742.o)
 .data          0x0044036c        0x0 /usr/lib/gcc/i686-pc-mingw32/3.4.4/../../../../i686-pc-mingw32/lib/libmsvcrt.a(doxfs00619.o)
 .data          0x0044036c        0x0 /usr/lib/gcc/i686-pc-mingw32/3.4.4/../../../../i686-pc-mingw32/lib/libmsvcrt.a(doxfs00607.o)
 .data          0x0044036c        0x0 /usr/lib/gcc/i686-pc-mingw32/3.4.4/../../../../i686-pc-mingw32/lib/libmsvcrt.a(doxfs00720.o)
 .data          0x0044036c        0x0 /usr/lib/gcc/i686-pc-mingw32/3.4.4/../../../../i686-pc-mingw32/lib/libmsvcrt.a(doxfs00610.o)
 .data          0x0044036c        0x0 /usr/lib/gcc/i686-pc-mingw32/3.4.4/../../../../i686-pc-mingw32/lib/libmsvcrt.a(doxfs00633.o)
 .data          0x0044036c        0x0 /usr/lib/gcc/i686-pc-mingw32/3.4.4/../../../../i686-pc-mingw32/lib/libmsvcrt.a(doxfs00625.o)
 .data          0x0044036c        0x0 /usr/lib/gcc/i686-pc-mingw32/3.4.4/../../../../i686-pc-mingw32/lib/libmsvcrt.a(doxfs00698.o)
 .data          0x0044036c        0x0 /usr/lib/gcc/i686-pc-mingw32/3.4.4/../../../../i686-pc-mingw32/lib/libmsvcrt.a(doxfs00676.o)
 .data          0x0044036c        0x0 /usr/lib/gcc/i686-pc-mingw32/3.4.4/../../../../i686-pc-mingw32/lib/libmsvcrt.a(doxfs00613.o)
 .data          0x0044036c        0x0 /usr/lib/gcc/i686-pc-mingw32/3.4.4/../../../../i686-pc-mingw32/lib/libmsvcrt.a(doxfs00490.o)
 .data          0x0044036c        0x0 /usr/lib/gcc/i686-pc-mingw32/3.4.4/../../../../i686-pc-mingw32/lib/libmsvcrt.a(doxfs00731.o)
 .data          0x0044036c        0x0 /usr/lib/gcc/i686-pc-mingw32/3.4.4/../../../../i686-pc-mingw32/lib/libmsvcrt.a(doxfs00732.o)
 .data          0x0044036c        0x0 /usr/lib/gcc/i686-pc-mingw32/3.4.4/../../../../i686-pc-mingw32/lib/libmsvcrt.a(doxfs00712.o)
 .data          0x0044036c        0x0 /usr/lib/gcc/i686-pc-mingw32/3.4.4/../../../../i686-pc-mingw32/lib/libmsvcrt.a(doxfs00695.o)
 .data          0x0044036c        0x0 /usr/lib/gcc/i686-pc-mingw32/3.4.4/../../../../i686-pc-mingw32/lib/libmsvcrt.a(doxfs00722.o)
 .data          0x0044036c        0x0 /usr/lib/gcc/i686-pc-mingw32/3.4.4/../../../../i686-pc-mingw32/lib/libmsvcrt.a(doxfs00730.o)
 .data          0x0044036c        0x0 /usr/lib/gcc/i686-pc-mingw32/3.4.4/../../../../i686-pc-mingw32/lib/libmsvcrt.a(doxfs00743.o)
 .data          0x0044036c        0x0 /usr/lib/gcc/i686-pc-mingw32/3.4.4/../../../../i686-pc-mingw32/lib/libmsvcrt.a(doxfs00713.o)
 .data          0x0044036c        0x0 /usr/lib/gcc/i686-pc-mingw32/3.4.4/../../../../i686-pc-mingw32/lib/libmsvcrt.a(doxfs00726.o)
 .data          0x0044036c        0x0 /usr/lib/gcc/i686-pc-mingw32/3.4.4/../../../../i686-pc-mingw32/lib/libmsvcrt.a(doxfs00604.o)
 .data          0x0044036c        0x0 /usr/lib/gcc/i686-pc-mingw32/3.4.4/../../../../i686-pc-mingw32/lib/libmsvcrt.a(doxfs00718.o)
 .data          0x0044036c        0x0 /usr/lib/gcc/i686-pc-mingw32/3.4.4/../../../../i686-pc-mingw32/lib/libmsvcrt.a(doxfs00621.o)
 .data          0x0044036c        0x0 /usr/lib/gcc/i686-pc-mingw32/3.4.4/../../../../i686-pc-mingw32/lib/libmsvcrt.a(doxfs00637.o)
 .data          0x0044036c        0x0 /usr/lib/gcc/i686-pc-mingw32/3.4.4/../../../../i686-pc-mingw32/lib/libmsvcrt.a(doxfs00699.o)
 .data          0x0044036c        0x0 /usr/lib/gcc/i686-pc-mingw32/3.4.4/../../../../i686-pc-mingw32/lib/libmsvcrt.a(doxfh.o)
 .data          0x0044036c        0x0 /usr/lib/gcc/i686-pc-mingw32/3.4.4/../../../../i686-pc-mingw32/lib/libmsvcrt.a(doxft.o)
 .data          0x0044036c        0x0 /usr/lib/w32api/libkernel32.a(dyuhs00739.o)
 .data          0x0044036c        0x0 /usr/lib/w32api/libkernel32.a(dyuhs00156.o)
 .data          0x0044036c        0x0 /usr/lib/w32api/libkernel32.a(dyuhs00423.o)
 .data          0x0044036c        0x0 /usr/lib/w32api/libkernel32.a(dyuhs00559.o)
 .data          0x0044036c        0x0 /usr/lib/w32api/libkernel32.a(dyuhs00226.o)
 .data          0x0044036c        0x0 /usr/lib/w32api/libkernel32.a(dyuhs00351.o)
 .data          0x0044036c        0x0 /usr/lib/w32api/libkernel32.a(dyuhs00327.o)
 .data          0x0044036c        0x0 /usr/lib/w32api/libkernel32.a(dyuhs00560.o)
 .data          0x0044036c        0x0 /usr/lib/w32api/libkernel32.a(dyuhs00512.o)
 .data          0x0044036c        0x0 /usr/lib/w32api/libkernel32.a(dyuhs00448.o)
 .data          0x0044036c        0x0 /usr/lib/w32api/libkernel32.a(dyuhs00459.o)
 .data          0x0044036c        0x0 /usr/lib/w32api/libkernel32.a(dyuhs00467.o)
 .data          0x0044036c        0x0 /usr/lib/w32api/libkernel32.a(dyuhs00455.o)
 .data          0x0044036c        0x0 /usr/lib/w32api/libkernel32.a(dyuhs00814.o)
 .data          0x0044036c        0x0 /usr/lib/w32api/libkernel32.a(dyuhs00018.o)
 .data          0x0044036c        0x0 /usr/lib/w32api/libkernel32.a(dyuhs00524.o)
 .data          0x0044036c        0x0 /usr/lib/w32api/libkernel32.a(dyuhs00364.o)
 .data          0x0044036c        0x0 /usr/lib/w32api/libkernel32.a(dyuhs00335.o)
 .data          0x0044036c        0x0 /usr/lib/w32api/libkernel32.a(dyuhs00085.o)
 .data          0x0044036c        0x0 /usr/lib/w32api/libkernel32.a(dyuhs00038.o)
 .data          0x0044036c        0x0 /usr/lib/w32api/libkernel32.a(dyuhs00069.o)
 .data          0x0044036c        0x0 /usr/lib/w32api/libkernel32.a(dyuhs00546.o)
 .data          0x0044036c        0x0 /usr/lib/w32api/libkernel32.a(dyuhs00776.o)
 .data          0x0044036c        0x0 /usr/lib/w32api/libkernel32.a(dyuhs00616.o)
 .data          0x0044036c        0x0 /usr/lib/w32api/libkernel32.a(dyuhs00698.o)
 .data          0x0044036c        0x0 /usr/lib/w32api/libkernel32.a(dyuhs00810.o)
 .data          0x0044036c        0x0 /usr/lib/w32api/libkernel32.a(dyuhs00325.o)
 .data          0x0044036c        0x0 /usr/lib/w32api/libkernel32.a(dyuhs00352.o)
 .data          0x0044036c        0x0 /usr/lib/w32api/libkernel32.a(dyuhs00064.o)
 .data          0x0044036c        0x0 /usr/lib/w32api/libkernel32.a(dyuhs00827.o)
 .data          0x0044036c        0x0 /usr/lib/w32api/libkernel32.a(dyuhs00091.o)
 .data          0x0044036c        0x0 /usr/lib/w32api/libkernel32.a(dyuhs00433.o)
 .data          0x0044036c        0x0 /usr/lib/w32api/libkernel32.a(dyuhs00009.o)
 .data          0x0044036c        0x0 /usr/lib/w32api/libkernel32.a(dyuhs00388.o)
 .data          0x0044036c        0x0 /usr/lib/w32api/libkernel32.a(dyuhs00214.o)
 .data          0x0044036c        0x0 /usr/lib/w32api/libkernel32.a(dyuhs00084.o)
 .data          0x0044036c        0x0 /usr/lib/w32api/libkernel32.a(dyuhs00710.o)
 .data          0x0044036c        0x0 /usr/lib/w32api/libkernel32.a(dyuhs00035.o)
 .data          0x0044036c        0x0 /usr/lib/w32api/libkernel32.a(dyuhs00235.o)
 .data          0x0044036c        0x0 /usr/lib/w32api/libkernel32.a(dyuhs00655.o)
 .data          0x0044036c        0x0 /usr/lib/w32api/libkernel32.a(dyuhs00656.o)
 .data          0x0044036c        0x0 /usr/lib/w32api/libkernel32.a(dyuhs00068.o)
 .data          0x0044036c        0x0 /usr/lib/w32api/libkernel32.a(dyuhs00652.o)
 .data          0x0044036c        0x0 /usr/lib/w32api/libkernel32.a(dyuhs00303.o)
 .data          0x0044036c        0x0 /usr/lib/w32api/libkernel32.a(dyuhs00443.o)
 .data          0x0044036c        0x0 /usr/lib/w32api/libkernel32.a(dyuhs00326.o)
 .data          0x0044036c        0x0 /usr/lib/w32api/libkernel32.a(dyuhs00220.o)
 .data          0x0044036c        0x0 /usr/lib/w32api/libkernel32.a(dyuhs00281.o)
 .data          0x0044036c        0x0 /usr/lib/w32api/libkernel32.a(dyuhs00688.o)
 .data          0x0044036c        0x0 /usr/lib/w32api/libkernel32.a(dyuhs00237.o)
 .data          0x0044036c        0x0 /usr/lib/w32api/libkernel32.a(dyuhs00386.o)
 .data          0x0044036c        0x0 /usr/lib/w32api/libkernel32.a(dyuhs00337.o)
 .data          0x0044036c        0x0 /usr/lib/w32api/libkernel32.a(dyuhh.o)
 .data          0x0044036c        0x0 /usr/lib/w32api/libkernel32.a(dyuht.o)
 *(.data2)
 *(SORT(.data$*))
 *(.jcr)
                0x0044036c                __data_end__ = .
 *(.data_cygwin_nocopy)

.rdata          0x00441000     0xee00
 *(.rdata)
 .rdata         0x00441000       0x2c be_nos_s.o
                0x00441024                _appname
                0x00441028                _be_default_protocol
 .rdata         0x0044102c      0x17c cmdline.o
 *fill*         0x004411a8       0x18 00
 .rdata         0x004411c0     0x3240 config.o
 .rdata         0x00444400       0x80 dialog.o
 .rdata         0x00444480       0x18 ldisc.o
 .rdata         0x00444498      0x1f4 logging.o
 *fill*         0x0044468c       0x14 00
 .rdata         0x004446a0     0x2b60 minibidi.o
                0x004446a0                _shapetypes
 .rdata         0x00447200      0x160 misc.o
 .rdata         0x00447360       0x4c nocproxy.o
 *fill*         0x004473ac       0x14 00
 .rdata         0x004473c0      0x520 proxy.o
 .rdata         0x004478e0       0x74 raw.o
 .rdata         0x00447954       0x78 rlogin.o
 *fill*         0x004479cc       0x14 00
 .rdata         0x004479e0      0x2a0 sercfg.o
 .rdata         0x00447c80      0xea0 settings.o
                0x00447de0                _ttymodes
 .rdata         0x00448b20       0x14 sizetip.o
 *fill*         0x00448b34        0xc 00
 .rdata         0x00448b40      0x640 telnet.o
 .rdata         0x00449180      0xda0 terminal.o
                0x00449184                _sco2ansicolour
                0x00449180                _sel_nl
 .rdata         0x00449f20        0xc testback.o
 .rdata         0x00449f2c       0x3c tree234.o
 *fill*         0x00449f68       0x18 00
 .rdata         0x00449f80      0x8c0 wcwidth.o
 .rdata         0x0044a840      0xa4c wincfg.o
 .rdata         0x0044b28c      0x544 winctrls.o
 .rdata         0x0044b7d0       0x24 windefs.o
 *fill*         0x0044b7f4        0xc 00
 .rdata         0x0044b800      0x8a0 windlg.o
 .rdata         0x0044c0a0      0x900 window.o
 .rdata         0x0044c9a0       0x58 winhandl.o
 .rdata         0x0044c9f8       0x14 winhelp.o
 .rdata         0x0044ca0c       0x20 winmisc.o
                0x0044ca0c                _platform_x11_best_transport
 *fill*         0x0044ca2c       0x14 00
 .rdata         0x0044ca40      0xc20 winnet.o
                0x0044ca50                _in6addr_any
                0x0044ca40                _in6addr_loopback
 .rdata         0x0044d660       0x20 winprint.o
 .rdata         0x0044d680       0xc0 winproxy.o
 .rdata         0x0044d740      0x244 winser.o
 .rdata         0x0044d984      0x398 winstore.o
 *fill*         0x0044dd1c        0x4 00
 .rdata         0x0044dd20     0x1e80 winucs.o
 .rdata         0x0044fba0      0x25c winutils.o
 *(SORT(.rdata$*))
 *(.eh_frame)
                0x0044fdfc                ___RUNTIME_PSEUDO_RELOC_LIST__ = .
                0x0044fdfc                __RUNTIME_PSEUDO_RELOC_LIST__ = .
 *(.rdata_runtime_pseudo_reloc)
                0x0044fdfc                ___RUNTIME_PSEUDO_RELOC_LIST_END__ = .
                0x0044fdfc                __RUNTIME_PSEUDO_RELOC_LIST_END__ = .

.pdata
 *(.pdata)

.bss            0x00450000     0x4c60
                0x00450000                __bss_start__ = .
 *(.bss)
 .bss           0x00450000        0x8 /usr/lib/gcc/i686-pc-mingw32/3.4.4/../../../../i686-pc-mingw32/lib/crt2.o
                0x00450004                __argc
                0x00450000                __argv
 .bss           0x00450008        0x0 be_nos_s.o
 .bss           0x00450008       0x48 cmdline.o
                0x00450008                _cmdline_tooltype
 .bss           0x00450050        0x0 config.o
 .bss           0x00450050        0x0 dialog.o
 .bss           0x00450050        0x0 ldisc.o
 .bss           0x00450050        0x0 ldiscucs.o
 .bss           0x00450050        0x0 logging.o
 .bss           0x00450050        0x0 minibidi.o
 .bss           0x00450050        0x0 misc.o
 .bss           0x00450050        0x0 nocproxy.o
 .bss           0x00450050        0x0 pinger.o
 .bss           0x00450050        0x0 proxy.o
 .bss           0x00450050        0x0 raw.o
 .bss           0x00450050        0x0 rlogin.o
 .bss           0x00450050        0x0 sercfg.o
 .bss           0x00450050        0x0 settings.o
 .bss           0x00450050       0x60 sizetip.o
 .bss           0x004500b0        0x0 telnet.o
 .bss           0x004500b0        0x0 terminal.o
 .bss           0x004500b0        0x0 testback.o
 .bss           0x004500b0       0x30 timing.o
 .bss           0x004500e0        0x0 tree234.o
 .bss           0x004500e0        0x0 version.o
 .bss           0x004500e0        0x0 wcwidth.o
 .bss           0x004500e0        0x0 wincfg.o
 .bss           0x004500e0       0x80 winctrls.o
 .bss           0x00450160        0x0 windefs.o
 .bss           0x00450160      0x140 windlg.o
 .bss           0x004502a0     0x18c0 window.o
 .bss           0x00451b60       0x10 winhandl.o
 .bss           0x00451b70       0x30 winhelp.o
 .bss           0x00451ba0       0x20 winmisc.o
 .bss           0x00451bc0      0x840 winnet.o
 .bss           0x00452400        0x0 winprint.o
 .bss           0x00452400        0x0 winproxy.o
 .bss           0x00452400        0x0 winser.o
 .bss           0x00452400       0x30 winstore.o
 .bss           0x00452430        0x0 wintime.o
 .bss           0x00452430       0x30 winucs.o
 .bss           0x00452460        0x0 winutils.o
 .bss           0x00452460        0x0 /usr/lib/w32api/libadvapi32.a(dykgs00245.o)
 .bss           0x00452460        0x0 /usr/lib/w32api/libadvapi32.a(dykgs00389.o)
 .bss           0x00452460        0x0 /usr/lib/w32api/libadvapi32.a(dykgs00386.o)
 .bss           0x00452460        0x0 /usr/lib/w32api/libadvapi32.a(dykgs00434.o)
 .bss           0x00452460        0x0 /usr/lib/w32api/libadvapi32.a(dykgs00412.o)
 .bss           0x00452460        0x0 /usr/lib/w32api/libadvapi32.a(dykgs00423.o)
 .bss           0x00452460        0x0 /usr/lib/w32api/libadvapi32.a(dykgs00393.o)
 .bss           0x00452460        0x0 /usr/lib/w32api/libadvapi32.a(dykgs00400.o)
 .bss           0x00452460        0x0 /usr/lib/w32api/libadvapi32.a(dykgh.o)
 .bss           0x00452460        0x0 /usr/lib/w32api/libadvapi32.a(dykgt.o)
 .bss           0x00452460        0x0 /usr/lib/w32api/libcomctl32.a(dkzhs00094.o)
 .bss           0x00452460        0x0 /usr/lib/w32api/libcomctl32.a(dkzhs00093.o)
 .bss           0x00452460        0x0 /usr/lib/w32api/libcomctl32.a(dkzhs00041.o)
 .bss           0x00452460        0x0 /usr/lib/w32api/libcomctl32.a(dkzhs00091.o)
 .bss           0x00452460        0x0 /usr/lib/w32api/libcomctl32.a(dkzhh.o)
 .bss           0x00452460        0x0 /usr/lib/w32api/libcomctl32.a(dkzht.o)
 .bss           0x00452460        0x0 /usr/lib/w32api/libcomdlg32.a(dmycs00002.o)
 .bss           0x00452460        0x0 /usr/lib/w32api/libcomdlg32.a(dmycs00000.o)
 .bss           0x00452460        0x0 /usr/lib/w32api/libcomdlg32.a(dmycs00011.o)
 .bss           0x00452460        0x0 /usr/lib/w32api/libcomdlg32.a(dmycs00009.o)
 .bss           0x00452460        0x0 /usr/lib/w32api/libcomdlg32.a(dmych.o)
 .bss           0x00452460        0x0 /usr/lib/w32api/libcomdlg32.a(dmyct.o)
 .bss           0x00452460        0x0 /usr/lib/w32api/libgdi32.a(dyohs00034.o)
 .bss           0x00452460        0x0 /usr/lib/w32api/libgdi32.a(dyohs00279.o)
 .bss           0x00452460        0x0 /usr/lib/w32api/libgdi32.a(dyohs00211.o)
 .bss           0x00452460        0x0 /usr/lib/w32api/libgdi32.a(dyohs00070.o)
 .bss           0x00452460        0x0 /usr/lib/w32api/libgdi32.a(dyohs00199.o)
 .bss           0x00452460        0x0 /usr/lib/w32api/libgdi32.a(dyohs00067.o)
 .bss           0x00452460        0x0 /usr/lib/w32api/libgdi32.a(dyohs00261.o)
 .bss           0x00452460        0x0 /usr/lib/w32api/libgdi32.a(dyohs00321.o)
 .bss           0x00452460        0x0 /usr/lib/w32api/libgdi32.a(dyohs00285.o)
 .bss           0x00452460        0x0 /usr/lib/w32api/libgdi32.a(dyohs00337.o)
 .bss           0x00452460        0x0 /usr/lib/w32api/libgdi32.a(dyohs00073.o)
 .bss           0x00452460        0x0 /usr/lib/w32api/libgdi32.a(dyohs00047.o)
 .bss           0x00452460        0x0 /usr/lib/w32api/libgdi32.a(dyohs00146.o)
 .bss           0x00452460        0x0 /usr/lib/w32api/libgdi32.a(dyohs00304.o)
 .bss           0x00452460        0x0 /usr/lib/w32api/libgdi32.a(dyohs00208.o)
 .bss           0x00452460        0x0 /usr/lib/w32api/libgdi32.a(dyohs00056.o)
 .bss           0x00452460        0x0 /usr/lib/w32api/libgdi32.a(dyohs00280.o)
 .bss           0x00452460        0x0 /usr/lib/w32api/libgdi32.a(dyohs00258.o)
 .bss           0x00452460        0x0 /usr/lib/w32api/libgdi32.a(dyohs00046.o)
 .bss           0x00452460        0x0 /usr/lib/w32api/libgdi32.a(dyohs00217.o)
 .bss           0x00452460        0x0 /usr/lib/w32api/libgdi32.a(dyohs00183.o)
 .bss           0x00452460        0x0 /usr/lib/w32api/libgdi32.a(dyohs00339.o)
 .bss           0x00452460        0x0 /usr/lib/w32api/libgdi32.a(dyohs00033.o)
 .bss           0x00452460        0x0 /usr/lib/w32api/libgdi32.a(dyohs00319.o)
 .bss           0x00452460        0x0 /usr/lib/w32api/libgdi32.a(dyohs00286.o)
 .bss           0x00452460        0x0 /usr/lib/w32api/libgdi32.a(dyohs00102.o)
 .bss           0x00452460        0x0 /usr/lib/w32api/libgdi32.a(dyohs00190.o)
 .bss           0x00452460        0x0 /usr/lib/w32api/libgdi32.a(dyohs00058.o)
 .bss           0x00452460        0x0 /usr/lib/w32api/libgdi32.a(dyohs00232.o)
 .bss           0x00452460        0x0 /usr/lib/w32api/libgdi32.a(dyohs00229.o)
 .bss           0x00452460        0x0 /usr/lib/w32api/libgdi32.a(dyohs00103.o)
 .bss           0x00452460        0x0 /usr/lib/w32api/libgdi32.a(dyohs00136.o)
 .bss           0x00452460        0x0 /usr/lib/w32api/libgdi32.a(dyohs00254.o)
 .bss           0x00452460        0x0 /usr/lib/w32api/libgdi32.a(dyohs00310.o)
 .bss           0x00452460        0x0 /usr/lib/w32api/libgdi32.a(dyohs00130.o)
 .bss           0x00452460        0x0 /usr/lib/w32api/libgdi32.a(dyohs00134.o)
 .bss           0x00452460        0x0 /usr/lib/w32api/libgdi32.a(dyohs00129.o)
 .bss           0x00452460        0x0 /usr/lib/w32api/libgdi32.a(dyohs00131.o)
 .bss           0x00452460        0x0 /usr/lib/w32api/libgdi32.a(dyohs00309.o)
 .bss           0x00452460        0x0 /usr/lib/w32api/libgdi32.a(dyohs00340.o)
 .bss           0x00452460        0x0 /usr/lib/w32api/libgdi32.a(dyohs00028.o)
 .bss           0x00452460        0x0 /usr/lib/w32api/libgdi32.a(dyohs00225.o)
 .bss           0x00452460        0x0 /usr/lib/w32api/libgdi32.a(dyohs00096.o)
 .bss           0x00452460        0x0 /usr/lib/w32api/libgdi32.a(dyohs00341.o)
 .bss           0x00452460        0x0 /usr/lib/w32api/libgdi32.a(dyohh.o)
 .bss           0x00452460        0x0 /usr/lib/w32api/libgdi32.a(dyoht.o)
 .bss           0x00452460        0x0 /usr/lib/w32api/libimm32.a(dasfs00025.o)
 .bss           0x00452460        0x0 /usr/lib/w32api/libimm32.a(dasfs00065.o)
 .bss           0x00452460        0x0 /usr/lib/w32api/libimm32.a(dasfs00059.o)
 .bss           0x00452460        0x0 /usr/lib/w32api/libimm32.a(dasfs00061.o)
 .bss           0x00452460        0x0 /usr/lib/w32api/libimm32.a(dasfs00023.o)
 .bss           0x00452460        0x0 /usr/lib/w32api/libimm32.a(dasfh.o)
 .bss           0x00452460        0x0 /usr/lib/w32api/libimm32.a(dasft.o)
 .bss           0x00452460        0x0 /usr/lib/w32api/libshell32.a(dsdfs00143.o)
 .bss           0x00452460        0x0 /usr/lib/w32api/libshell32.a(dsdfh.o)
 .bss           0x00452460        0x0 /usr/lib/w32api/libshell32.a(dsdft.o)
 .bss           0x00452460        0x0 /usr/lib/w32api/libuser32.a(dwxfs00133.o)
 .bss           0x00452460        0x0 /usr/lib/w32api/libuser32.a(dwxfs00568.o)
 .bss           0x00452460        0x0 /usr/lib/w32api/libuser32.a(dwxfs00368.o)
 .bss           0x00452460        0x0 /usr/lib/w32api/libuser32.a(dwxfs00011.o)
 .bss           0x00452460        0x0 /usr/lib/w32api/libuser32.a(dwxfs00235.o)
 .bss           0x00452460        0x0 /usr/lib/w32api/libuser32.a(dwxfs00349.o)
 .bss           0x00452460        0x0 /usr/lib/w32api/libuser32.a(dwxfs00348.o)
 .bss           0x00452460        0x0 /usr/lib/w32api/libuser32.a(dwxfs00183.o)
 .bss           0x00452460        0x0 /usr/lib/w32api/libuser32.a(dwxfs00346.o)
 .bss           0x00452460        0x0 /usr/lib/w32api/libuser32.a(dwxfs00089.o)
 .bss           0x00452460        0x0 /usr/lib/w32api/libuser32.a(dwxfs00581.o)
 .bss           0x00452460        0x0 /usr/lib/w32api/libuser32.a(dwxfs00322.o)
 .bss           0x00452460        0x0 /usr/lib/w32api/libuser32.a(dwxfs00587.o)
 .bss           0x00452460        0x0 /usr/lib/w32api/libuser32.a(dwxfs00570.o)
 .bss           0x00452460        0x0 /usr/lib/w32api/libuser32.a(dwxfs00476.o)
 .bss           0x00452460        0x0 /usr/lib/w32api/libuser32.a(dwxfs00143.o)
 .bss           0x00452460        0x0 /usr/lib/w32api/libuser32.a(dwxfs00224.o)
 .bss           0x00452460        0x0 /usr/lib/w32api/libuser32.a(dwxfs00504.o)
 .bss           0x00452460        0x0 /usr/lib/w32api/libuser32.a(dwxfs00423.o)
 .bss           0x00452460        0x0 /usr/lib/w32api/libuser32.a(dwxfs00247.o)
 .bss           0x00452460        0x0 /usr/lib/w32api/libuser32.a(dwxfs00490.o)
 .bss           0x00452460        0x0 /usr/lib/w32api/libuser32.a(dwxfs00501.o)
 .bss           0x00452460        0x0 /usr/lib/w32api/libuser32.a(dwxfs00565.o)
 .bss           0x00452460        0x0 /usr/lib/w32api/libuser32.a(dwxfs00430.o)
 .bss           0x00452460        0x0 /usr/lib/w32api/libuser32.a(dwxfs00056.o)
 .bss           0x00452460        0x0 /usr/lib/w32api/libuser32.a(dwxfs00384.o)
 .bss           0x00452460        0x0 /usr/lib/w32api/libuser32.a(dwxfs00053.o)
 .bss           0x00452460        0x0 /usr/lib/w32api/libuser32.a(dwxfs00526.o)
 .bss           0x00452460        0x0 /usr/lib/w32api/libuser32.a(dwxfs00254.o)
 .bss           0x00452460        0x0 /usr/lib/w32api/libuser32.a(dwxfs00487.o)
 .bss           0x00452460        0x0 /usr/lib/w32api/libuser32.a(dwxfs00162.o)
 .bss           0x00452460        0x0 /usr/lib/w32api/libuser32.a(dwxfs00513.o)
 .bss           0x00452460        0x0 /usr/lib/w32api/libuser32.a(dwxfs00252.o)
 .bss           0x00452460        0x0 /usr/lib/w32api/libuser32.a(dwxfs00529.o)
 .bss           0x00452460        0x0 /usr/lib/w32api/libuser32.a(dwxfs00431.o)
 .bss           0x00452460        0x0 /usr/lib/w32api/libuser32.a(dwxfs00345.o)
 .bss           0x00452460        0x0 /usr/lib/w32api/libuser32.a(dwxfs00567.o)
 .bss           0x00452460        0x0 /usr/lib/w32api/libuser32.a(dwxfs00303.o)
 .bss           0x00452460        0x0 /usr/lib/w32api/libuser32.a(dwxfs00512.o)
 .bss           0x00452460        0x0 /usr/lib/w32api/libuser32.a(dwxfs00181.o)
 .bss           0x00452460        0x0 /usr/lib/w32api/libuser32.a(dwxfs00179.o)
 .bss           0x00452460        0x0 /usr/lib/w32api/libuser32.a(dwxfs00146.o)
 .bss           0x00452460        0x0 /usr/lib/w32api/libuser32.a(dwxfs00126.o)
 .bss           0x00452460        0x0 /usr/lib/w32api/libuser32.a(dwxfs00402.o)
 .bss           0x00452460        0x0 /usr/lib/w32api/libuser32.a(dwxfs00079.o)
 .bss           0x00452460        0x0 /usr/lib/w32api/libuser32.a(dwxfs00292.o)
 .bss           0x00452460        0x0 /usr/lib/w32api/libuser32.a(dwxfs00340.o)
 .bss           0x00452460        0x0 /usr/lib/w32api/libuser32.a(dwxfs00382.o)
 .bss           0x00452460        0x0 /usr/lib/w32api/libuser32.a(dwxfs00148.o)
 .bss           0x00452460        0x0 /usr/lib/w32api/libuser32.a(dwxfs00465.o)
 .bss           0x00452460        0x0 /usr/lib/w32api/libuser32.a(dwxfs00489.o)
 .bss           0x00452460        0x0 /usr/lib/w32api/libuser32.a(dwxfs00223.o)
 .bss           0x00452460        0x0 /usr/lib/w32api/libuser32.a(dwxfs00406.o)
 .bss           0x00452460        0x0 /usr/lib/w32api/libuser32.a(dwxfs00249.o)
 .bss           0x00452460        0x0 /usr/lib/w32api/libuser32.a(dwxfs00442.o)
 .bss           0x00452460        0x0 /usr/lib/w32api/libuser32.a(dwxfs00136.o)
 .bss           0x00452460        0x0 /usr/lib/w32api/libuser32.a(dwxfs00006.o)
 .bss           0x00452460        0x0 /usr/lib/w32api/libuser32.a(dwxfs00362.o)
 .bss           0x00452460        0x0 /usr/lib/w32api/libuser32.a(dwxfs00088.o)
 .bss           0x00452460        0x0 /usr/lib/w32api/libuser32.a(dwxfs00516.o)
 .bss           0x00452460        0x0 /usr/lib/w32api/libuser32.a(dwxfs00521.o)
 .bss           0x00452460        0x0 /usr/lib/w32api/libuser32.a(dwxfs00578.o)
 .bss           0x00452460        0x0 /usr/lib/w32api/libuser32.a(dwxfs00272.o)
 .bss           0x00452460        0x0 /usr/lib/w32api/libuser32.a(dwxfs00397.o)
 .bss           0x00452460        0x0 /usr/lib/w32api/libuser32.a(dwxfs00559.o)
 .bss           0x00452460        0x0 /usr/lib/w32api/libuser32.a(dwxfs00395.o)
 .bss           0x00452460        0x0 /usr/lib/w32api/libuser32.a(dwxfs00515.o)
 .bss           0x00452460        0x0 /usr/lib/w32api/libuser32.a(dwxfs00387.o)
 .bss           0x00452460        0x0 /usr/lib/w32api/libuser32.a(dwxfs00550.o)
 .bss           0x00452460        0x0 /usr/lib/w32api/libuser32.a(dwxfs00452.o)
 .bss           0x00452460        0x0 /usr/lib/w32api/libuser32.a(dwxfs00176.o)
 .bss           0x00452460        0x0 /usr/lib/w32api/libuser32.a(dwxfs00519.o)
 .bss           0x00452460        0x0 /usr/lib/w32api/libuser32.a(dwxfs00061.o)
 .bss           0x00452460        0x0 /usr/lib/w32api/libuser32.a(dwxfs00480.o)
 .bss           0x00452460        0x0 /usr/lib/w32api/libuser32.a(dwxfs00237.o)
 .bss           0x00452460        0x0 /usr/lib/w32api/libuser32.a(dwxfs00213.o)
 .bss           0x00452460        0x0 /usr/lib/w32api/libuser32.a(dwxfs00073.o)
 .bss           0x00452460        0x0 /usr/lib/w32api/libuser32.a(dwxfs00256.o)
 .bss           0x00452460        0x0 /usr/lib/w32api/libuser32.a(dwxfs00324.o)
 .bss           0x00452460        0x0 /usr/lib/w32api/libuser32.a(dwxfs00087.o)
 .bss           0x00452460        0x0 /usr/lib/w32api/libuser32.a(dwxfs00268.o)
 .bss           0x00452460        0x0 /usr/lib/w32api/libuser32.a(dwxfs00530.o)
 .bss           0x00452460        0x0 /usr/lib/w32api/libuser32.a(dwxfs00258.o)
 .bss           0x00452460        0x0 /usr/lib/w32api/libuser32.a(dwxfs00617.o)
 .bss           0x00452460        0x0 /usr/lib/w32api/libuser32.a(dwxfs00443.o)
 .bss           0x00452460        0x0 /usr/lib/w32api/libuser32.a(dwxfs00461.o)
 .bss           0x00452460        0x0 /usr/lib/w32api/libuser32.a(dwxfs00391.o)
 .bss           0x00452460        0x0 /usr/lib/w32api/libuser32.a(dwxfs00054.o)
 .bss           0x00452460        0x0 /usr/lib/w32api/libuser32.a(dwxfs00139.o)
 .bss           0x00452460        0x0 /usr/lib/w32api/libuser32.a(dwxfs00177.o)
 .bss           0x00452460        0x0 /usr/lib/w32api/libuser32.a(dwxfs00604.o)
 .bss           0x00452460        0x0 /usr/lib/w32api/libuser32.a(dwxfs00246.o)
 .bss           0x00452460        0x0 /usr/lib/w32api/libuser32.a(dwxfs00295.o)
 .bss           0x00452460        0x0 /usr/lib/w32api/libuser32.a(dwxfs00598.o)
 .bss           0x00452460        0x0 /usr/lib/w32api/libuser32.a(dwxfs00463.o)
 .bss           0x00452460        0x0 /usr/lib/w32api/libuser32.a(dwxfs00577.o)
 .bss           0x00452460        0x0 /usr/lib/w32api/libuser32.a(dwxfs00531.o)
 .bss           0x00452460        0x0 /usr/lib/w32api/libuser32.a(dwxfs00594.o)
 .bss           0x00452460        0x0 /usr/lib/w32api/libuser32.a(dwxfs00356.o)
 .bss           0x00452460        0x0 /usr/lib/w32api/libuser32.a(dwxfs00627.o)
 .bss           0x00452460        0x0 /usr/lib/w32api/libuser32.a(dwxfs00434.o)
 .bss           0x00452460        0x0 /usr/lib/w32api/libuser32.a(dwxfh.o)
 .bss           0x00452460        0x0 /usr/lib/w32api/libuser32.a(dwxft.o)
 .bss           0x00452460        0x0 /usr/lib/w32api/libwinmm.a(dumfs00008.o)
 .bss           0x00452460        0x0 /usr/lib/w32api/libwinmm.a(dumfh.o)
 .bss           0x00452460        0x0 /usr/lib/w32api/libwinmm.a(dumft.o)
 .bss           0x00452460        0x0 /usr/lib/w32api/libwinspool.a(dwbds00078.o)
 .bss           0x00452460        0x0 /usr/lib/w32api/libwinspool.a(dwbds00102.o)
 .bss           0x00452460        0x0 /usr/lib/w32api/libwinspool.a(dwbds00126.o)
 .bss           0x00452460        0x0 /usr/lib/w32api/libwinspool.a(dwbds00128.o)
 .bss           0x00452460        0x0 /usr/lib/w32api/libwinspool.a(dwbds00025.o)
 .bss           0x00452460        0x0 /usr/lib/w32api/libwinspool.a(dwbds00059.o)
 .bss           0x00452460        0x0 /usr/lib/w32api/libwinspool.a(dwbds00130.o)
 .bss           0x00452460        0x0 /usr/lib/w32api/libwinspool.a(dwbds00060.o)
 .bss           0x00452460        0x0 /usr/lib/w32api/libwinspool.a(dwbdh.o)
 .bss           0x00452460        0x0 /usr/lib/w32api/libwinspool.a(dwbdt.o)
 .bss           0x00452460        0x0 /usr/lib/gcc/i686-pc-mingw32/3.4.4/../../../../i686-pc-mingw32/lib/libmingw32.a(CRTglob.o)
 .bss           0x00452460        0x4 /usr/lib/gcc/i686-pc-mingw32/3.4.4/../../../../i686-pc-mingw32/lib/libmingw32.a(CRTfmode.o)
                0x00452460                __CRT_fmode
 .bss           0x00452464        0x0 /usr/lib/gcc/i686-pc-mingw32/3.4.4/../../../../i686-pc-mingw32/lib/libmingw32.a(txtmode.o)
 .bss           0x00452464        0x0 /usr/lib/gcc/i686-pc-mingw32/3.4.4/../../../../i686-pc-mingw32/lib/libmingw32.a(main.o)
 *fill*         0x00452464        0x4 00
 .bss           0x00452468       0x10 /usr/lib/gcc/i686-pc-mingw32/3.4.4/../../../../i686-pc-mingw32/lib/libmingw32.a(gccmain.o)
 .bss           0x00452478        0x0 /usr/lib/gcc/i686-pc-mingw32/3.4.4/../../../../i686-pc-mingw32/lib/libmingw32.a(pseudo-reloc.o)
 .bss           0x00452478        0x4 /usr/lib/gcc/i686-pc-mingw32/3.4.4/../../../../i686-pc-mingw32/lib/libmingw32.a(cpu_features.o)
                0x00452478                ___cpu_features
 .bss           0x0045247c        0x0 /usr/lib/gcc/i686-pc-mingw32/3.4.4/../../../../i686-pc-mingw32/lib/libmingw32.a(CRT_fp10.o)
 .bss           0x0045247c        0x4 /usr/lib/gcc/i686-pc-mingw32/3.4.4/../../../../i686-pc-mingw32/lib/libmingw32.a(pseudo-reloc-list.o)
 .bss           0x00452480        0x0 /usr/lib/gcc/i686-pc-mingw32/3.4.4/libgcc.a(_chkstk.o)
 .bss           0x00452480        0x0 /usr/lib/gcc/i686-pc-mingw32/3.4.4/libgcc.a(_ctors.o)
 .bss           0x00452480        0x0 /usr/lib/gcc/i686-pc-mingw32/3.4.4/../../../../i686-pc-mingw32/lib/libmoldname.a(dctgs00084.o)
 .bss           0x00452480        0x0 /usr/lib/gcc/i686-pc-mingw32/3.4.4/../../../../i686-pc-mingw32/lib/libmoldname.a(dctgh.o)
 .bss           0x00452480        0x0 /usr/lib/gcc/i686-pc-mingw32/3.4.4/../../../../i686-pc-mingw32/lib/libmoldname.a(dctgt.o)
 .bss           0x00452480        0x0 /usr/lib/gcc/i686-pc-mingw32/3.4.4/../../../../i686-pc-mingw32/lib/libmsvcrt.a(doxfs00266.o)
 .bss           0x00452480        0x0 /usr/lib/gcc/i686-pc-mingw32/3.4.4/../../../../i686-pc-mingw32/lib/libmsvcrt.a(doxfs00099.o)
 .bss           0x00452480        0x0 /usr/lib/gcc/i686-pc-mingw32/3.4.4/../../../../i686-pc-mingw32/lib/libmsvcrt.a(doxfs00590.o)
 .bss           0x00452480        0x0 /usr/lib/gcc/i686-pc-mingw32/3.4.4/../../../../i686-pc-mingw32/lib/libmsvcrt.a(doxfs00383.o)
 .bss           0x00452480        0x0 /usr/lib/gcc/i686-pc-mingw32/3.4.4/../../../../i686-pc-mingw32/lib/libmsvcrt.a(doxfs00147.o)
 .bss           0x00452480        0x0 /usr/lib/gcc/i686-pc-mingw32/3.4.4/../../../../i686-pc-mingw32/lib/libmsvcrt.a(doxfs00077.o)
 .bss           0x00452480        0x0 /usr/lib/gcc/i686-pc-mingw32/3.4.4/../../../../i686-pc-mingw32/lib/libmsvcrt.a(doxfs00706.o)
 .bss           0x00452480        0x0 /usr/lib/gcc/i686-pc-mingw32/3.4.4/../../../../i686-pc-mingw32/lib/libmsvcrt.a(doxfs00079.o)
 .bss           0x00452480        0x0 /usr/lib/gcc/i686-pc-mingw32/3.4.4/../../../../i686-pc-mingw32/lib/libmsvcrt.a(doxfs00426.o)
 .bss           0x00452480        0x0 /usr/lib/gcc/i686-pc-mingw32/3.4.4/../../../../i686-pc-mingw32/lib/libmsvcrt.a(doxfs00055.o)
 .bss           0x00452480        0x0 /usr/lib/gcc/i686-pc-mingw32/3.4.4/../../../../i686-pc-mingw32/lib/libmsvcrt.a(doxfs00684.o)
 .bss           0x00452480        0x0 /usr/lib/gcc/i686-pc-mingw32/3.4.4/../../../../i686-pc-mingw32/lib/libmsvcrt.a(doxfs00611.o)
 .bss           0x00452480        0x0 /usr/lib/gcc/i686-pc-mingw32/3.4.4/../../../../i686-pc-mingw32/lib/libmsvcrt.a(doxfs00592.o)
 .bss           0x00452480        0x0 /usr/lib/gcc/i686-pc-mingw32/3.4.4/../../../../i686-pc-mingw32/lib/libmsvcrt.a(doxfs00714.o)
 .bss           0x00452480        0x0 /usr/lib/gcc/i686-pc-mingw32/3.4.4/../../../../i686-pc-mingw32/lib/libmsvcrt.a(doxfs00721.o)
 .bss           0x00452480        0x0 /usr/lib/gcc/i686-pc-mingw32/3.4.4/../../../../i686-pc-mingw32/lib/libmsvcrt.a(doxfs00724.o)
 .bss           0x00452480        0x0 /usr/lib/gcc/i686-pc-mingw32/3.4.4/../../../../i686-pc-mingw32/lib/libmsvcrt.a(doxfs00618.o)
 .bss           0x00452480        0x0 /usr/lib/gcc/i686-pc-mingw32/3.4.4/../../../../i686-pc-mingw32/lib/libmsvcrt.a(doxfs00682.o)
 .bss           0x00452480        0x0 /usr/lib/gcc/i686-pc-mingw32/3.4.4/../../../../i686-pc-mingw32/lib/libmsvcrt.a(doxfs00683.o)
 .bss           0x00452480        0x0 /usr/lib/gcc/i686-pc-mingw32/3.4.4/../../../../i686-pc-mingw32/lib/libmsvcrt.a(doxfs00723.o)
 .bss           0x00452480        0x0 /usr/lib/gcc/i686-pc-mingw32/3.4.4/../../../../i686-pc-mingw32/lib/libmsvcrt.a(doxfs00717.o)
 .bss           0x00452480        0x0 /usr/lib/gcc/i686-pc-mingw32/3.4.4/../../../../i686-pc-mingw32/lib/libmsvcrt.a(doxfs00715.o)
 .bss           0x00452480        0x0 /usr/lib/gcc/i686-pc-mingw32/3.4.4/../../../../i686-pc-mingw32/lib/libmsvcrt.a(doxfs00137.o)
 .bss           0x00452480        0x0 /usr/lib/gcc/i686-pc-mingw32/3.4.4/../../../../i686-pc-mingw32/lib/libmsvcrt.a(doxfs00709.o)
 .bss           0x00452480        0x0 /usr/lib/gcc/i686-pc-mingw32/3.4.4/../../../../i686-pc-mingw32/lib/libmsvcrt.a(doxfs00591.o)
 .bss           0x00452480        0x0 /usr/lib/gcc/i686-pc-mingw32/3.4.4/../../../../i686-pc-mingw32/lib/libmsvcrt.a(doxfs00065.o)
 .bss           0x00452480        0x0 /usr/lib/gcc/i686-pc-mingw32/3.4.4/../../../../i686-pc-mingw32/lib/libmsvcrt.a(doxfs00392.o)
 .bss           0x00452480        0x0 /usr/lib/gcc/i686-pc-mingw32/3.4.4/../../../../i686-pc-mingw32/lib/libmsvcrt.a(doxfs00268.o)
 .bss           0x00452480        0x0 /usr/lib/gcc/i686-pc-mingw32/3.4.4/../../../../i686-pc-mingw32/lib/libmsvcrt.a(doxfs00742.o)
 .bss           0x00452480        0x0 /usr/lib/gcc/i686-pc-mingw32/3.4.4/../../../../i686-pc-mingw32/lib/libmsvcrt.a(doxfs00619.o)
 .bss           0x00452480        0x0 /usr/lib/gcc/i686-pc-mingw32/3.4.4/../../../../i686-pc-mingw32/lib/libmsvcrt.a(doxfs00607.o)
 .bss           0x00452480        0x0 /usr/lib/gcc/i686-pc-mingw32/3.4.4/../../../../i686-pc-mingw32/lib/libmsvcrt.a(doxfs00720.o)
 .bss           0x00452480        0x0 /usr/lib/gcc/i686-pc-mingw32/3.4.4/../../../../i686-pc-mingw32/lib/libmsvcrt.a(doxfs00610.o)
 .bss           0x00452480        0x0 /usr/lib/gcc/i686-pc-mingw32/3.4.4/../../../../i686-pc-mingw32/lib/libmsvcrt.a(doxfs00633.o)
 .bss           0x00452480        0x0 /usr/lib/gcc/i686-pc-mingw32/3.4.4/../../../../i686-pc-mingw32/lib/libmsvcrt.a(doxfs00625.o)
 .bss           0x00452480        0x0 /usr/lib/gcc/i686-pc-mingw32/3.4.4/../../../../i686-pc-mingw32/lib/libmsvcrt.a(doxfs00698.o)
 .bss           0x00452480        0x0 /usr/lib/gcc/i686-pc-mingw32/3.4.4/../../../../i686-pc-mingw32/lib/libmsvcrt.a(doxfs00676.o)
 .bss           0x00452480        0x0 /usr/lib/gcc/i686-pc-mingw32/3.4.4/../../../../i686-pc-mingw32/lib/libmsvcrt.a(doxfs00613.o)
 .bss           0x00452480        0x0 /usr/lib/gcc/i686-pc-mingw32/3.4.4/../../../../i686-pc-mingw32/lib/libmsvcrt.a(doxfs00490.o)
 .bss           0x00452480        0x0 /usr/lib/gcc/i686-pc-mingw32/3.4.4/../../../../i686-pc-mingw32/lib/libmsvcrt.a(doxfs00731.o)
 .bss           0x00452480        0x0 /usr/lib/gcc/i686-pc-mingw32/3.4.4/../../../../i686-pc-mingw32/lib/libmsvcrt.a(doxfs00732.o)
 .bss           0x00452480        0x0 /usr/lib/gcc/i686-pc-mingw32/3.4.4/../../../../i686-pc-mingw32/lib/libmsvcrt.a(doxfs00712.o)
 .bss           0x00452480        0x0 /usr/lib/gcc/i686-pc-mingw32/3.4.4/../../../../i686-pc-mingw32/lib/libmsvcrt.a(doxfs00695.o)
 .bss           0x00452480        0x0 /usr/lib/gcc/i686-pc-mingw32/3.4.4/../../../../i686-pc-mingw32/lib/libmsvcrt.a(doxfs00722.o)
 .bss           0x00452480        0x0 /usr/lib/gcc/i686-pc-mingw32/3.4.4/../../../../i686-pc-mingw32/lib/libmsvcrt.a(doxfs00730.o)
 .bss           0x00452480        0x0 /usr/lib/gcc/i686-pc-mingw32/3.4.4/../../../../i686-pc-mingw32/lib/libmsvcrt.a(doxfs00743.o)
 .bss           0x00452480        0x0 /usr/lib/gcc/i686-pc-mingw32/3.4.4/../../../../i686-pc-mingw32/lib/libmsvcrt.a(doxfs00713.o)
 .bss           0x00452480        0x0 /usr/lib/gcc/i686-pc-mingw32/3.4.4/../../../../i686-pc-mingw32/lib/libmsvcrt.a(doxfs00726.o)
 .bss           0x00452480        0x0 /usr/lib/gcc/i686-pc-mingw32/3.4.4/../../../../i686-pc-mingw32/lib/libmsvcrt.a(doxfs00604.o)
 .bss           0x00452480        0x0 /usr/lib/gcc/i686-pc-mingw32/3.4.4/../../../../i686-pc-mingw32/lib/libmsvcrt.a(doxfs00718.o)
 .bss           0x00452480        0x0 /usr/lib/gcc/i686-pc-mingw32/3.4.4/../../../../i686-pc-mingw32/lib/libmsvcrt.a(doxfs00621.o)
 .bss           0x00452480        0x0 /usr/lib/gcc/i686-pc-mingw32/3.4.4/../../../../i686-pc-mingw32/lib/libmsvcrt.a(doxfs00637.o)
 .bss           0x00452480        0x0 /usr/lib/gcc/i686-pc-mingw32/3.4.4/../../../../i686-pc-mingw32/lib/libmsvcrt.a(doxfs00699.o)
 .bss           0x00452480        0x0 /usr/lib/gcc/i686-pc-mingw32/3.4.4/../../../../i686-pc-mingw32/lib/libmsvcrt.a(doxfh.o)
 .bss           0x00452480        0x0 /usr/lib/gcc/i686-pc-mingw32/3.4.4/../../../../i686-pc-mingw32/lib/libmsvcrt.a(doxft.o)
 .bss           0x00452480        0x0 /usr/lib/w32api/libkernel32.a(dyuhs00739.o)
 .bss           0x00452480        0x0 /usr/lib/w32api/libkernel32.a(dyuhs00156.o)
 .bss           0x00452480        0x0 /usr/lib/w32api/libkernel32.a(dyuhs00423.o)
 .bss           0x00452480        0x0 /usr/lib/w32api/libkernel32.a(dyuhs00559.o)
 .bss           0x00452480        0x0 /usr/lib/w32api/libkernel32.a(dyuhs00226.o)
 .bss           0x00452480        0x0 /usr/lib/w32api/libkernel32.a(dyuhs00351.o)
 .bss           0x00452480        0x0 /usr/lib/w32api/libkernel32.a(dyuhs00327.o)
 .bss           0x00452480        0x0 /usr/lib/w32api/libkernel32.a(dyuhs00560.o)
 .bss           0x00452480        0x0 /usr/lib/w32api/libkernel32.a(dyuhs00512.o)
 .bss           0x00452480        0x0 /usr/lib/w32api/libkernel32.a(dyuhs00448.o)
 .bss           0x00452480        0x0 /usr/lib/w32api/libkernel32.a(dyuhs00459.o)
 .bss           0x00452480        0x0 /usr/lib/w32api/libkernel32.a(dyuhs00467.o)
 .bss           0x00452480        0x0 /usr/lib/w32api/libkernel32.a(dyuhs00455.o)
 .bss           0x00452480        0x0 /usr/lib/w32api/libkernel32.a(dyuhs00814.o)
 .bss           0x00452480        0x0 /usr/lib/w32api/libkernel32.a(dyuhs00018.o)
 .bss           0x00452480        0x0 /usr/lib/w32api/libkernel32.a(dyuhs00524.o)
 .bss           0x00452480        0x0 /usr/lib/w32api/libkernel32.a(dyuhs00364.o)
 .bss           0x00452480        0x0 /usr/lib/w32api/libkernel32.a(dyuhs00335.o)
 .bss           0x00452480        0x0 /usr/lib/w32api/libkernel32.a(dyuhs00085.o)
 .bss           0x00452480        0x0 /usr/lib/w32api/libkernel32.a(dyuhs00038.o)
 .bss           0x00452480        0x0 /usr/lib/w32api/libkernel32.a(dyuhs00069.o)
 .bss           0x00452480        0x0 /usr/lib/w32api/libkernel32.a(dyuhs00546.o)
 .bss           0x00452480        0x0 /usr/lib/w32api/libkernel32.a(dyuhs00776.o)
 .bss           0x00452480        0x0 /usr/lib/w32api/libkernel32.a(dyuhs00616.o)
 .bss           0x00452480        0x0 /usr/lib/w32api/libkernel32.a(dyuhs00698.o)
 .bss           0x00452480        0x0 /usr/lib/w32api/libkernel32.a(dyuhs00810.o)
 .bss           0x00452480        0x0 /usr/lib/w32api/libkernel32.a(dyuhs00325.o)
 .bss           0x00452480        0x0 /usr/lib/w32api/libkernel32.a(dyuhs00352.o)
 .bss           0x00452480        0x0 /usr/lib/w32api/libkernel32.a(dyuhs00064.o)
 .bss           0x00452480        0x0 /usr/lib/w32api/libkernel32.a(dyuhs00827.o)
 .bss           0x00452480        0x0 /usr/lib/w32api/libkernel32.a(dyuhs00091.o)
 .bss           0x00452480        0x0 /usr/lib/w32api/libkernel32.a(dyuhs00433.o)
 .bss           0x00452480        0x0 /usr/lib/w32api/libkernel32.a(dyuhs00009.o)
 .bss           0x00452480        0x0 /usr/lib/w32api/libkernel32.a(dyuhs00388.o)
 .bss           0x00452480        0x0 /usr/lib/w32api/libkernel32.a(dyuhs00214.o)
 .bss           0x00452480        0x0 /usr/lib/w32api/libkernel32.a(dyuhs00084.o)
 .bss           0x00452480        0x0 /usr/lib/w32api/libkernel32.a(dyuhs00710.o)
 .bss           0x00452480        0x0 /usr/lib/w32api/libkernel32.a(dyuhs00035.o)
 .bss           0x00452480        0x0 /usr/lib/w32api/libkernel32.a(dyuhs00235.o)
 .bss           0x00452480        0x0 /usr/lib/w32api/libkernel32.a(dyuhs00655.o)
 .bss           0x00452480        0x0 /usr/lib/w32api/libkernel32.a(dyuhs00656.o)
 .bss           0x00452480        0x0 /usr/lib/w32api/libkernel32.a(dyuhs00068.o)
 .bss           0x00452480        0x0 /usr/lib/w32api/libkernel32.a(dyuhs00652.o)
 .bss           0x00452480        0x0 /usr/lib/w32api/libkernel32.a(dyuhs00303.o)
 .bss           0x00452480        0x0 /usr/lib/w32api/libkernel32.a(dyuhs00443.o)
 .bss           0x00452480        0x0 /usr/lib/w32api/libkernel32.a(dyuhs00326.o)
 .bss           0x00452480        0x0 /usr/lib/w32api/libkernel32.a(dyuhs00220.o)
 .bss           0x00452480        0x0 /usr/lib/w32api/libkernel32.a(dyuhs00281.o)
 .bss           0x00452480        0x0 /usr/lib/w32api/libkernel32.a(dyuhs00688.o)
 .bss           0x00452480        0x0 /usr/lib/w32api/libkernel32.a(dyuhs00237.o)
 .bss           0x00452480        0x0 /usr/lib/w32api/libkernel32.a(dyuhs00386.o)
 .bss           0x00452480        0x0 /usr/lib/w32api/libkernel32.a(dyuhs00337.o)
 .bss           0x00452480        0x0 /usr/lib/w32api/libkernel32.a(dyuhh.o)
 .bss           0x00452480        0x0 /usr/lib/w32api/libkernel32.a(dyuht.o)
 *(COMMON)
 COMMON         0x00452480     0x26d0 window.o
                0x00452480                _loaded_session
                0x00452490                _cfg
                0x00454ad0                _term
                0x00454ae0                _default_port
                0x00454af0                _hinst
                0x00454b00                _logbox
                0x00454b10                _flags
                0x00454b20                _hwnd
                0x00454b30                _logctx
                0x00454b40                _default_protocol
 COMMON         0x00454b50       0xa0 winmisc.o
                0x00454b50                _osVersion
 COMMON         0x00454bf0       0x50 winnet.o
                0x00454bf0                _p_WSAEnumNetworkEvents
                0x00454c00                _p_WSAAsyncSelect
                0x00454c10                _p_select
                0x00454c20                _p_WSAGetLastError
                0x00454c30                _p_WSAEventSelect
 COMMON         0x00454c40       0x20 /usr/lib/gcc/i686-pc-mingw32/3.4.4/libgcc.a(_ctors.o)
                0x00454c60                __bss_end__ = .

.edata
 *(.edata)

/DISCARD/
 *(.debug$S)
 *(.debug$T)
 *(.debug$F)
 *(.drectve)

.idata          0x00455000     0x2200
 SORT(*)(.idata$2)
 .idata$2       0x00455000       0x14 /usr/lib/gcc/i686-pc-mingw32/3.4.4/../../../../i686-pc-mingw32/lib/libmoldname.a(dctgh.o)
                0x00455000                __head_libmoldname_a
 .idata$2       0x00455014       0x14 /usr/lib/gcc/i686-pc-mingw32/3.4.4/../../../../i686-pc-mingw32/lib/libmsvcrt.a(doxfh.o)
                0x00455014                __head_libmsvcrt_a
 .idata$2       0x00455028       0x14 /usr/lib/w32api/libadvapi32.a(dykgh.o)
                0x00455028                __head_libadvapi32_a
 .idata$2       0x0045503c       0x14 /usr/lib/w32api/libcomctl32.a(dkzhh.o)
                0x0045503c                __head_libcomctl32_a
 .idata$2       0x00455050       0x14 /usr/lib/w32api/libcomdlg32.a(dmych.o)
                0x00455050                __head_libcomdlg32_a
 .idata$2       0x00455064       0x14 /usr/lib/w32api/libgdi32.a(dyohh.o)
                0x00455064                __head_libgdi32_a
 .idata$2       0x00455078       0x14 /usr/lib/w32api/libimm32.a(dasfh.o)
                0x00455078                __head_libimm32_a
 .idata$2       0x0045508c       0x14 /usr/lib/w32api/libkernel32.a(dyuhh.o)
                0x0045508c                __head_libkernel32_a
 .idata$2       0x004550a0       0x14 /usr/lib/w32api/libshell32.a(dsdfh.o)
                0x004550a0                __head_libshell32_a
 .idata$2       0x004550b4       0x14 /usr/lib/w32api/libuser32.a(dwxfh.o)
                0x004550b4                __head_libuser32_a
 .idata$2       0x004550c8       0x14 /usr/lib/w32api/libwinmm.a(dumfh.o)
                0x004550c8                __head_libwinmm_a
 .idata$2       0x004550dc       0x14 /usr/lib/w32api/libwinspool.a(dwbdh.o)
                0x004550dc                __head_libwinspool_a
 SORT(*)(.idata$3)
                0x004550f0        0x4 LONG 0x0
                0x004550f4        0x4 LONG 0x0
                0x004550f8        0x4 LONG 0x0
                0x004550fc        0x4 LONG 0x0
                0x00455100        0x4 LONG 0x0
 SORT(*)(.idata$4)
 .idata$4       0x00455104        0x4 /usr/lib/gcc/i686-pc-mingw32/3.4.4/../../../../i686-pc-mingw32/lib/libmoldname.a(dctgh.o)
 .idata$4       0x00455108        0x4 /usr/lib/gcc/i686-pc-mingw32/3.4.4/../../../../i686-pc-mingw32/lib/libmoldname.a(dctgs00084.o)
 .idata$4       0x0045510c        0x4 /usr/lib/gcc/i686-pc-mingw32/3.4.4/../../../../i686-pc-mingw32/lib/libmoldname.a(dctgt.o)
 .idata$4       0x00455110        0x4 /usr/lib/gcc/i686-pc-mingw32/3.4.4/../../../../i686-pc-mingw32/lib/libmsvcrt.a(doxfh.o)
 .idata$4       0x00455114        0x4 /usr/lib/gcc/i686-pc-mingw32/3.4.4/../../../../i686-pc-mingw32/lib/libmsvcrt.a(doxfs00055.o)
 .idata$4       0x00455118        0x4 /usr/lib/gcc/i686-pc-mingw32/3.4.4/../../../../i686-pc-mingw32/lib/libmsvcrt.a(doxfs00065.o)
 .idata$4       0x0045511c        0x4 /usr/lib/gcc/i686-pc-mingw32/3.4.4/../../../../i686-pc-mingw32/lib/libmsvcrt.a(doxfs00077.o)
 .idata$4       0x00455120        0x4 /usr/lib/gcc/i686-pc-mingw32/3.4.4/../../../../i686-pc-mingw32/lib/libmsvcrt.a(doxfs00079.o)
 .idata$4       0x00455124        0x4 /usr/lib/gcc/i686-pc-mingw32/3.4.4/../../../../i686-pc-mingw32/lib/libmsvcrt.a(doxfs00099.o)
 .idata$4       0x00455128        0x4 /usr/lib/gcc/i686-pc-mingw32/3.4.4/../../../../i686-pc-mingw32/lib/libmsvcrt.a(doxfs00137.o)
 .idata$4       0x0045512c        0x4 /usr/lib/gcc/i686-pc-mingw32/3.4.4/../../../../i686-pc-mingw32/lib/libmsvcrt.a(doxfs00147.o)
 .idata$4       0x00455130        0x4 /usr/lib/gcc/i686-pc-mingw32/3.4.4/../../../../i686-pc-mingw32/lib/libmsvcrt.a(doxfs00266.o)
 .idata$4       0x00455134        0x4 /usr/lib/gcc/i686-pc-mingw32/3.4.4/../../../../i686-pc-mingw32/lib/libmsvcrt.a(doxfs00268.o)
 .idata$4       0x00455138        0x4 /usr/lib/gcc/i686-pc-mingw32/3.4.4/../../../../i686-pc-mingw32/lib/libmsvcrt.a(doxfs00383.o)
 .idata$4       0x0045513c        0x4 /usr/lib/gcc/i686-pc-mingw32/3.4.4/../../../../i686-pc-mingw32/lib/libmsvcrt.a(doxfs00392.o)
 .idata$4       0x00455140        0x4 /usr/lib/gcc/i686-pc-mingw32/3.4.4/../../../../i686-pc-mingw32/lib/libmsvcrt.a(doxfs00426.o)
 .idata$4       0x00455144        0x4 /usr/lib/gcc/i686-pc-mingw32/3.4.4/../../../../i686-pc-mingw32/lib/libmsvcrt.a(doxfs00490.o)
 .idata$4       0x00455148        0x4 /usr/lib/gcc/i686-pc-mingw32/3.4.4/../../../../i686-pc-mingw32/lib/libmsvcrt.a(doxfs00590.o)
 .idata$4       0x0045514c        0x4 /usr/lib/gcc/i686-pc-mingw32/3.4.4/../../../../i686-pc-mingw32/lib/libmsvcrt.a(doxfs00591.o)
 .idata$4       0x00455150        0x4 /usr/lib/gcc/i686-pc-mingw32/3.4.4/../../../../i686-pc-mingw32/lib/libmsvcrt.a(doxfs00592.o)
 .idata$4       0x00455154        0x4 /usr/lib/gcc/i686-pc-mingw32/3.4.4/../../../../i686-pc-mingw32/lib/libmsvcrt.a(doxfs00604.o)
 .idata$4       0x00455158        0x4 /usr/lib/gcc/i686-pc-mingw32/3.4.4/../../../../i686-pc-mingw32/lib/libmsvcrt.a(doxfs00607.o)
 .idata$4       0x0045515c        0x4 /usr/lib/gcc/i686-pc-mingw32/3.4.4/../../../../i686-pc-mingw32/lib/libmsvcrt.a(doxfs00610.o)
 .idata$4       0x00455160        0x4 /usr/lib/gcc/i686-pc-mingw32/3.4.4/../../../../i686-pc-mingw32/lib/libmsvcrt.a(doxfs00611.o)
 .idata$4       0x00455164        0x4 /usr/lib/gcc/i686-pc-mingw32/3.4.4/../../../../i686-pc-mingw32/lib/libmsvcrt.a(doxfs00613.o)
 .idata$4       0x00455168        0x4 /usr/lib/gcc/i686-pc-mingw32/3.4.4/../../../../i686-pc-mingw32/lib/libmsvcrt.a(doxfs00618.o)
 .idata$4       0x0045516c        0x4 /usr/lib/gcc/i686-pc-mingw32/3.4.4/../../../../i686-pc-mingw32/lib/libmsvcrt.a(doxfs00619.o)
 .idata$4       0x00455170        0x4 /usr/lib/gcc/i686-pc-mingw32/3.4.4/../../../../i686-pc-mingw32/lib/libmsvcrt.a(doxfs00621.o)
 .idata$4       0x00455174        0x4 /usr/lib/gcc/i686-pc-mingw32/3.4.4/../../../../i686-pc-mingw32/lib/libmsvcrt.a(doxfs00625.o)
 .idata$4       0x00455178        0x4 /usr/lib/gcc/i686-pc-mingw32/3.4.4/../../../../i686-pc-mingw32/lib/libmsvcrt.a(doxfs00633.o)
 .idata$4       0x0045517c        0x4 /usr/lib/gcc/i686-pc-mingw32/3.4.4/../../../../i686-pc-mingw32/lib/libmsvcrt.a(doxfs00637.o)
 .idata$4       0x00455180        0x4 /usr/lib/gcc/i686-pc-mingw32/3.4.4/../../../../i686-pc-mingw32/lib/libmsvcrt.a(doxfs00676.o)
 .idata$4       0x00455184        0x4 /usr/lib/gcc/i686-pc-mingw32/3.4.4/../../../../i686-pc-mingw32/lib/libmsvcrt.a(doxfs00682.o)
 .idata$4       0x00455188        0x4 /usr/lib/gcc/i686-pc-mingw32/3.4.4/../../../../i686-pc-mingw32/lib/libmsvcrt.a(doxfs00683.o)
 .idata$4       0x0045518c        0x4 /usr/lib/gcc/i686-pc-mingw32/3.4.4/../../../../i686-pc-mingw32/lib/libmsvcrt.a(doxfs00684.o)
 .idata$4       0x00455190        0x4 /usr/lib/gcc/i686-pc-mingw32/3.4.4/../../../../i686-pc-mingw32/lib/libmsvcrt.a(doxfs00695.o)
 .idata$4       0x00455194        0x4 /usr/lib/gcc/i686-pc-mingw32/3.4.4/../../../../i686-pc-mingw32/lib/libmsvcrt.a(doxfs00698.o)
 .idata$4       0x00455198        0x4 /usr/lib/gcc/i686-pc-mingw32/3.4.4/../../../../i686-pc-mingw32/lib/libmsvcrt.a(doxfs00699.o)
 .idata$4       0x0045519c        0x4 /usr/lib/gcc/i686-pc-mingw32/3.4.4/../../../../i686-pc-mingw32/lib/libmsvcrt.a(doxfs00706.o)
 .idata$4       0x004551a0        0x4 /usr/lib/gcc/i686-pc-mingw32/3.4.4/../../../../i686-pc-mingw32/lib/libmsvcrt.a(doxfs00709.o)
 .idata$4       0x004551a4        0x4 /usr/lib/gcc/i686-pc-mingw32/3.4.4/../../../../i686-pc-mingw32/lib/libmsvcrt.a(doxfs00712.o)
 .idata$4       0x004551a8        0x4 /usr/lib/gcc/i686-pc-mingw32/3.4.4/../../../../i686-pc-mingw32/lib/libmsvcrt.a(doxfs00713.o)
 .idata$4       0x004551ac        0x4 /usr/lib/gcc/i686-pc-mingw32/3.4.4/../../../../i686-pc-mingw32/lib/libmsvcrt.a(doxfs00714.o)
 .idata$4       0x004551b0        0x4 /usr/lib/gcc/i686-pc-mingw32/3.4.4/../../../../i686-pc-mingw32/lib/libmsvcrt.a(doxfs00715.o)
 .idata$4       0x004551b4        0x4 /usr/lib/gcc/i686-pc-mingw32/3.4.4/../../../../i686-pc-mingw32/lib/libmsvcrt.a(doxfs00717.o)
 .idata$4       0x004551b8        0x4 /usr/lib/gcc/i686-pc-mingw32/3.4.4/../../../../i686-pc-mingw32/lib/libmsvcrt.a(doxfs00718.o)
 .idata$4       0x004551bc        0x4 /usr/lib/gcc/i686-pc-mingw32/3.4.4/../../../../i686-pc-mingw32/lib/libmsvcrt.a(doxfs00720.o)
 .idata$4       0x004551c0        0x4 /usr/lib/gcc/i686-pc-mingw32/3.4.4/../../../../i686-pc-mingw32/lib/libmsvcrt.a(doxfs00721.o)
 .idata$4       0x004551c4        0x4 /usr/lib/gcc/i686-pc-mingw32/3.4.4/../../../../i686-pc-mingw32/lib/libmsvcrt.a(doxfs00722.o)
 .idata$4       0x004551c8        0x4 /usr/lib/gcc/i686-pc-mingw32/3.4.4/../../../../i686-pc-mingw32/lib/libmsvcrt.a(doxfs00723.o)
 .idata$4       0x004551cc        0x4 /usr/lib/gcc/i686-pc-mingw32/3.4.4/../../../../i686-pc-mingw32/lib/libmsvcrt.a(doxfs00724.o)
 .idata$4       0x004551d0        0x4 /usr/lib/gcc/i686-pc-mingw32/3.4.4/../../../../i686-pc-mingw32/lib/libmsvcrt.a(doxfs00726.o)
 .idata$4       0x004551d4        0x4 /usr/lib/gcc/i686-pc-mingw32/3.4.4/../../../../i686-pc-mingw32/lib/libmsvcrt.a(doxfs00730.o)
 .idata$4       0x004551d8        0x4 /usr/lib/gcc/i686-pc-mingw32/3.4.4/../../../../i686-pc-mingw32/lib/libmsvcrt.a(doxfs00731.o)
 .idata$4       0x004551dc        0x4 /usr/lib/gcc/i686-pc-mingw32/3.4.4/../../../../i686-pc-mingw32/lib/libmsvcrt.a(doxfs00732.o)
 .idata$4       0x004551e0        0x4 /usr/lib/gcc/i686-pc-mingw32/3.4.4/../../../../i686-pc-mingw32/lib/libmsvcrt.a(doxfs00742.o)
 .idata$4       0x004551e4        0x4 /usr/lib/gcc/i686-pc-mingw32/3.4.4/../../../../i686-pc-mingw32/lib/libmsvcrt.a(doxfs00743.o)
 .idata$4       0x004551e8        0x4 /usr/lib/gcc/i686-pc-mingw32/3.4.4/../../../../i686-pc-mingw32/lib/libmsvcrt.a(doxft.o)
 .idata$4       0x004551ec        0x4 /usr/lib/w32api/libadvapi32.a(dykgh.o)
 .idata$4       0x004551f0        0x4 /usr/lib/w32api/libadvapi32.a(dykgs00245.o)
 .idata$4       0x004551f4        0x4 /usr/lib/w32api/libadvapi32.a(dykgs00386.o)
 .idata$4       0x004551f8        0x4 /usr/lib/w32api/libadvapi32.a(dykgs00389.o)
 .idata$4       0x004551fc        0x4 /usr/lib/w32api/libadvapi32.a(dykgs00393.o)
 .idata$4       0x00455200        0x4 /usr/lib/w32api/libadvapi32.a(dykgs00400.o)
 .idata$4       0x00455204        0x4 /usr/lib/w32api/libadvapi32.a(dykgs00412.o)
 .idata$4       0x00455208        0x4 /usr/lib/w32api/libadvapi32.a(dykgs00423.o)
 .idata$4       0x0045520c        0x4 /usr/lib/w32api/libadvapi32.a(dykgs00434.o)
 .idata$4       0x00455210        0x4 /usr/lib/w32api/libadvapi32.a(dykgt.o)
 .idata$4       0x00455214        0x4 /usr/lib/w32api/libcomctl32.a(dkzhh.o)
 .idata$4       0x00455218        0x4 /usr/lib/w32api/libcomctl32.a(dkzhs00041.o)
 .idata$4       0x0045521c        0x4 /usr/lib/w32api/libcomctl32.a(dkzhs00091.o)
 .idata$4       0x00455220        0x4 /usr/lib/w32api/libcomctl32.a(dkzhs00093.o)
 .idata$4       0x00455224        0x4 /usr/lib/w32api/libcomctl32.a(dkzhs00094.o)
 .idata$4       0x00455228        0x4 /usr/lib/w32api/libcomctl32.a(dkzht.o)
 .idata$4       0x0045522c        0x4 /usr/lib/w32api/libcomdlg32.a(dmych.o)
 .idata$4       0x00455230        0x4 /usr/lib/w32api/libcomdlg32.a(dmycs00000.o)
 .idata$4       0x00455234        0x4 /usr/lib/w32api/libcomdlg32.a(dmycs00002.o)
 .idata$4       0x00455238        0x4 /usr/lib/w32api/libcomdlg32.a(dmycs00009.o)
 .idata$4       0x0045523c        0x4 /usr/lib/w32api/libcomdlg32.a(dmycs00011.o)
 .idata$4       0x00455240        0x4 /usr/lib/w32api/libcomdlg32.a(dmyct.o)
 .idata$4       0x00455244        0x4 /usr/lib/w32api/libgdi32.a(dyohh.o)
 .idata$4       0x00455248        0x4 /usr/lib/w32api/libgdi32.a(dyohs00028.o)
 .idata$4       0x0045524c        0x4 /usr/lib/w32api/libgdi32.a(dyohs00033.o)
 .idata$4       0x00455250        0x4 /usr/lib/w32api/libgdi32.a(dyohs00034.o)
 .idata$4       0x00455254        0x4 /usr/lib/w32api/libgdi32.a(dyohs00046.o)
 .idata$4       0x00455258        0x4 /usr/lib/w32api/libgdi32.a(dyohs00047.o)
 .idata$4       0x0045525c        0x4 /usr/lib/w32api/libgdi32.a(dyohs00056.o)
 .idata$4       0x00455260        0x4 /usr/lib/w32api/libgdi32.a(dyohs00058.o)
 .idata$4       0x00455264        0x4 /usr/lib/w32api/libgdi32.a(dyohs00067.o)
 .idata$4       0x00455268        0x4 /usr/lib/w32api/libgdi32.a(dyohs00070.o)
 .idata$4       0x0045526c        0x4 /usr/lib/w32api/libgdi32.a(dyohs00073.o)
 .idata$4       0x00455270        0x4 /usr/lib/w32api/libgdi32.a(dyohs00096.o)
 .idata$4       0x00455274        0x4 /usr/lib/w32api/libgdi32.a(dyohs00102.o)
 .idata$4       0x00455278        0x4 /usr/lib/w32api/libgdi32.a(dyohs00103.o)
 .idata$4       0x0045527c        0x4 /usr/lib/w32api/libgdi32.a(dyohs00129.o)
 .idata$4       0x00455280        0x4 /usr/lib/w32api/libgdi32.a(dyohs00130.o)
 .idata$4       0x00455284        0x4 /usr/lib/w32api/libgdi32.a(dyohs00131.o)
 .idata$4       0x00455288        0x4 /usr/lib/w32api/libgdi32.a(dyohs00134.o)
 .idata$4       0x0045528c        0x4 /usr/lib/w32api/libgdi32.a(dyohs00136.o)
 .idata$4       0x00455290        0x4 /usr/lib/w32api/libgdi32.a(dyohs00146.o)
 .idata$4       0x00455294        0x4 /usr/lib/w32api/libgdi32.a(dyohs00183.o)
 .idata$4       0x00455298        0x4 /usr/lib/w32api/libgdi32.a(dyohs00190.o)
 .idata$4       0x0045529c        0x4 /usr/lib/w32api/libgdi32.a(dyohs00199.o)
 .idata$4       0x004552a0        0x4 /usr/lib/w32api/libgdi32.a(dyohs00208.o)
 .idata$4       0x004552a4        0x4 /usr/lib/w32api/libgdi32.a(dyohs00211.o)
 .idata$4       0x004552a8        0x4 /usr/lib/w32api/libgdi32.a(dyohs00217.o)
 .idata$4       0x004552ac        0x4 /usr/lib/w32api/libgdi32.a(dyohs00225.o)
 .idata$4       0x004552b0        0x4 /usr/lib/w32api/libgdi32.a(dyohs00229.o)
 .idata$4       0x004552b4        0x4 /usr/lib/w32api/libgdi32.a(dyohs00232.o)
 .idata$4       0x004552b8        0x4 /usr/lib/w32api/libgdi32.a(dyohs00254.o)
 .idata$4       0x004552bc        0x4 /usr/lib/w32api/libgdi32.a(dyohs00258.o)
 .idata$4       0x004552c0        0x4 /usr/lib/w32api/libgdi32.a(dyohs00261.o)
 .idata$4       0x004552c4        0x4 /usr/lib/w32api/libgdi32.a(dyohs00279.o)
 .idata$4       0x004552c8        0x4 /usr/lib/w32api/libgdi32.a(dyohs00280.o)
 .idata$4       0x004552cc        0x4 /usr/lib/w32api/libgdi32.a(dyohs00285.o)
 .idata$4       0x004552d0        0x4 /usr/lib/w32api/libgdi32.a(dyohs00286.o)
 .idata$4       0x004552d4        0x4 /usr/lib/w32api/libgdi32.a(dyohs00304.o)
 .idata$4       0x004552d8        0x4 /usr/lib/w32api/libgdi32.a(dyohs00309.o)
 .idata$4       0x004552dc        0x4 /usr/lib/w32api/libgdi32.a(dyohs00310.o)
 .idata$4       0x004552e0        0x4 /usr/lib/w32api/libgdi32.a(dyohs00319.o)
 .idata$4       0x004552e4        0x4 /usr/lib/w32api/libgdi32.a(dyohs00321.o)
 .idata$4       0x004552e8        0x4 /usr/lib/w32api/libgdi32.a(dyohs00337.o)
 .idata$4       0x004552ec        0x4 /usr/lib/w32api/libgdi32.a(dyohs00339.o)
 .idata$4       0x004552f0        0x4 /usr/lib/w32api/libgdi32.a(dyohs00340.o)
 .idata$4       0x004552f4        0x4 /usr/lib/w32api/libgdi32.a(dyohs00341.o)
 .idata$4       0x004552f8        0x4 /usr/lib/w32api/libgdi32.a(dyoht.o)
 .idata$4       0x004552fc        0x4 /usr/lib/w32api/libimm32.a(dasfh.o)
 .idata$4       0x00455300        0x4 /usr/lib/w32api/libimm32.a(dasfs00023.o)
 .idata$4       0x00455304        0x4 /usr/lib/w32api/libimm32.a(dasfs00025.o)
 .idata$4       0x00455308        0x4 /usr/lib/w32api/libimm32.a(dasfs00059.o)
 .idata$4       0x0045530c        0x4 /usr/lib/w32api/libimm32.a(dasfs00061.o)
 .idata$4       0x00455310        0x4 /usr/lib/w32api/libimm32.a(dasfs00065.o)
 .idata$4       0x00455314        0x4 /usr/lib/w32api/libimm32.a(dasft.o)
 .idata$4       0x00455318        0x4 /usr/lib/w32api/libkernel32.a(dyuhh.o)
 .idata$4       0x0045531c        0x4 /usr/lib/w32api/libkernel32.a(dyuhs00009.o)
 .idata$4       0x00455320        0x4 /usr/lib/w32api/libkernel32.a(dyuhs00018.o)
 .idata$4       0x00455324        0x4 /usr/lib/w32api/libkernel32.a(dyuhs00035.o)
 .idata$4       0x00455328        0x4 /usr/lib/w32api/libkernel32.a(dyuhs00038.o)
 .idata$4       0x0045532c        0x4 /usr/lib/w32api/libkernel32.a(dyuhs00064.o)
 .idata$4       0x00455330        0x4 /usr/lib/w32api/libkernel32.a(dyuhs00068.o)
 .idata$4       0x00455334        0x4 /usr/lib/w32api/libkernel32.a(dyuhs00069.o)
 .idata$4       0x00455338        0x4 /usr/lib/w32api/libkernel32.a(dyuhs00084.o)
 .idata$4       0x0045533c        0x4 /usr/lib/w32api/libkernel32.a(dyuhs00085.o)
 .idata$4       0x00455340        0x4 /usr/lib/w32api/libkernel32.a(dyuhs00091.o)
 .idata$4       0x00455344        0x4 /usr/lib/w32api/libkernel32.a(dyuhs00156.o)
 .idata$4       0x00455348        0x4 /usr/lib/w32api/libkernel32.a(dyuhs00214.o)
 .idata$4       0x0045534c        0x4 /usr/lib/w32api/libkernel32.a(dyuhs00220.o)
 .idata$4       0x00455350        0x4 /usr/lib/w32api/libkernel32.a(dyuhs00226.o)
 .idata$4       0x00455354        0x4 /usr/lib/w32api/libkernel32.a(dyuhs00235.o)
 .idata$4       0x00455358        0x4 /usr/lib/w32api/libkernel32.a(dyuhs00237.o)
 .idata$4       0x0045535c        0x4 /usr/lib/w32api/libkernel32.a(dyuhs00281.o)
 .idata$4       0x00455360        0x4 /usr/lib/w32api/libkernel32.a(dyuhs00303.o)
 .idata$4       0x00455364        0x4 /usr/lib/w32api/libkernel32.a(dyuhs00325.o)
 .idata$4       0x00455368        0x4 /usr/lib/w32api/libkernel32.a(dyuhs00326.o)
 .idata$4       0x0045536c        0x4 /usr/lib/w32api/libkernel32.a(dyuhs00327.o)
 .idata$4       0x00455370        0x4 /usr/lib/w32api/libkernel32.a(dyuhs00335.o)
 .idata$4       0x00455374        0x4 /usr/lib/w32api/libkernel32.a(dyuhs00337.o)
 .idata$4       0x00455378        0x4 /usr/lib/w32api/libkernel32.a(dyuhs00351.o)
 .idata$4       0x0045537c        0x4 /usr/lib/w32api/libkernel32.a(dyuhs00352.o)
 .idata$4       0x00455380        0x4 /usr/lib/w32api/libkernel32.a(dyuhs00364.o)
 .idata$4       0x00455384        0x4 /usr/lib/w32api/libkernel32.a(dyuhs00386.o)
 .idata$4       0x00455388        0x4 /usr/lib/w32api/libkernel32.a(dyuhs00388.o)
 .idata$4       0x0045538c        0x4 /usr/lib/w32api/libkernel32.a(dyuhs00423.o)
 .idata$4       0x00455390        0x4 /usr/lib/w32api/libkernel32.a(dyuhs00433.o)
 .idata$4       0x00455394        0x4 /usr/lib/w32api/libkernel32.a(dyuhs00443.o)
 .idata$4       0x00455398        0x4 /usr/lib/w32api/libkernel32.a(dyuhs00448.o)
 .idata$4       0x0045539c        0x4 /usr/lib/w32api/libkernel32.a(dyuhs00455.o)
 .idata$4       0x004553a0        0x4 /usr/lib/w32api/libkernel32.a(dyuhs00459.o)
 .idata$4       0x004553a4        0x4 /usr/lib/w32api/libkernel32.a(dyuhs00467.o)
 .idata$4       0x004553a8        0x4 /usr/lib/w32api/libkernel32.a(dyuhs00512.o)
 .idata$4       0x004553ac        0x4 /usr/lib/w32api/libkernel32.a(dyuhs00524.o)
 .idata$4       0x004553b0        0x4 /usr/lib/w32api/libkernel32.a(dyuhs00546.o)
 .idata$4       0x004553b4        0x4 /usr/lib/w32api/libkernel32.a(dyuhs00559.o)
 .idata$4       0x004553b8        0x4 /usr/lib/w32api/libkernel32.a(dyuhs00560.o)
 .idata$4       0x004553bc        0x4 /usr/lib/w32api/libkernel32.a(dyuhs00616.o)
 .idata$4       0x004553c0        0x4 /usr/lib/w32api/libkernel32.a(dyuhs00652.o)
 .idata$4       0x004553c4        0x4 /usr/lib/w32api/libkernel32.a(dyuhs00655.o)
 .idata$4       0x004553c8        0x4 /usr/lib/w32api/libkernel32.a(dyuhs00656.o)
 .idata$4       0x004553cc        0x4 /usr/lib/w32api/libkernel32.a(dyuhs00688.o)
 .idata$4       0x004553d0        0x4 /usr/lib/w32api/libkernel32.a(dyuhs00698.o)
 .idata$4       0x004553d4        0x4 /usr/lib/w32api/libkernel32.a(dyuhs00710.o)
 .idata$4       0x004553d8        0x4 /usr/lib/w32api/libkernel32.a(dyuhs00739.o)
 .idata$4       0x004553dc        0x4 /usr/lib/w32api/libkernel32.a(dyuhs00776.o)
 .idata$4       0x004553e0        0x4 /usr/lib/w32api/libkernel32.a(dyuhs00810.o)
 .idata$4       0x004553e4        0x4 /usr/lib/w32api/libkernel32.a(dyuhs00814.o)
 .idata$4       0x004553e8        0x4 /usr/lib/w32api/libkernel32.a(dyuhs00827.o)
 .idata$4       0x004553ec        0x4 /usr/lib/w32api/libkernel32.a(dyuht.o)
 .idata$4       0x004553f0        0x4 /usr/lib/w32api/libshell32.a(dsdfh.o)
 .idata$4       0x004553f4        0x4 /usr/lib/w32api/libshell32.a(dsdfs00143.o)
 .idata$4       0x004553f8        0x4 /usr/lib/w32api/libshell32.a(dsdft.o)
 .idata$4       0x004553fc        0x4 /usr/lib/w32api/libuser32.a(dwxfh.o)
 .idata$4       0x00455400        0x4 /usr/lib/w32api/libuser32.a(dwxfs00006.o)
 .idata$4       0x00455404        0x4 /usr/lib/w32api/libuser32.a(dwxfs00011.o)
 .idata$4       0x00455408        0x4 /usr/lib/w32api/libuser32.a(dwxfs00053.o)
 .idata$4       0x0045540c        0x4 /usr/lib/w32api/libuser32.a(dwxfs00054.o)
 .idata$4       0x00455410        0x4 /usr/lib/w32api/libuser32.a(dwxfs00056.o)
 .idata$4       0x00455414        0x4 /usr/lib/w32api/libuser32.a(dwxfs00061.o)
 .idata$4       0x00455418        0x4 /usr/lib/w32api/libuser32.a(dwxfs00073.o)
 .idata$4       0x0045541c        0x4 /usr/lib/w32api/libuser32.a(dwxfs00079.o)
 .idata$4       0x00455420        0x4 /usr/lib/w32api/libuser32.a(dwxfs00087.o)
 .idata$4       0x00455424        0x4 /usr/lib/w32api/libuser32.a(dwxfs00088.o)
 .idata$4       0x00455428        0x4 /usr/lib/w32api/libuser32.a(dwxfs00089.o)
 .idata$4       0x0045542c        0x4 /usr/lib/w32api/libuser32.a(dwxfs00126.o)
 .idata$4       0x00455430        0x4 /usr/lib/w32api/libuser32.a(dwxfs00133.o)
 .idata$4       0x00455434        0x4 /usr/lib/w32api/libuser32.a(dwxfs00136.o)
 .idata$4       0x00455438        0x4 /usr/lib/w32api/libuser32.a(dwxfs00139.o)
 .idata$4       0x0045543c        0x4 /usr/lib/w32api/libuser32.a(dwxfs00143.o)
 .idata$4       0x00455440        0x4 /usr/lib/w32api/libuser32.a(dwxfs00146.o)
 .idata$4       0x00455444        0x4 /usr/lib/w32api/libuser32.a(dwxfs00148.o)
 .idata$4       0x00455448        0x4 /usr/lib/w32api/libuser32.a(dwxfs00162.o)
 .idata$4       0x0045544c        0x4 /usr/lib/w32api/libuser32.a(dwxfs00176.o)
 .idata$4       0x00455450        0x4 /usr/lib/w32api/libuser32.a(dwxfs00177.o)
 .idata$4       0x00455454        0x4 /usr/lib/w32api/libuser32.a(dwxfs00179.o)
 .idata$4       0x00455458        0x4 /usr/lib/w32api/libuser32.a(dwxfs00181.o)
 .idata$4       0x0045545c        0x4 /usr/lib/w32api/libuser32.a(dwxfs00183.o)
 .idata$4       0x00455460        0x4 /usr/lib/w32api/libuser32.a(dwxfs00213.o)
 .idata$4       0x00455464        0x4 /usr/lib/w32api/libuser32.a(dwxfs00223.o)
 .idata$4       0x00455468        0x4 /usr/lib/w32api/libuser32.a(dwxfs00224.o)
 .idata$4       0x0045546c        0x4 /usr/lib/w32api/libuser32.a(dwxfs00235.o)
 .idata$4       0x00455470        0x4 /usr/lib/w32api/libuser32.a(dwxfs00237.o)
 .idata$4       0x00455474        0x4 /usr/lib/w32api/libuser32.a(dwxfs00246.o)
 .idata$4       0x00455478        0x4 /usr/lib/w32api/libuser32.a(dwxfs00247.o)
 .idata$4       0x0045547c        0x4 /usr/lib/w32api/libuser32.a(dwxfs00249.o)
 .idata$4       0x00455480        0x4 /usr/lib/w32api/libuser32.a(dwxfs00252.o)
 .idata$4       0x00455484        0x4 /usr/lib/w32api/libuser32.a(dwxfs00254.o)
 .idata$4       0x00455488        0x4 /usr/lib/w32api/libuser32.a(dwxfs00256.o)
 .idata$4       0x0045548c        0x4 /usr/lib/w32api/libuser32.a(dwxfs00258.o)
 .idata$4       0x00455490        0x4 /usr/lib/w32api/libuser32.a(dwxfs00268.o)
 .idata$4       0x00455494        0x4 /usr/lib/w32api/libuser32.a(dwxfs00272.o)
 .idata$4       0x00455498        0x4 /usr/lib/w32api/libuser32.a(dwxfs00292.o)
 .idata$4       0x0045549c        0x4 /usr/lib/w32api/libuser32.a(dwxfs00295.o)
 .idata$4       0x004554a0        0x4 /usr/lib/w32api/libuser32.a(dwxfs00303.o)
 .idata$4       0x004554a4        0x4 /usr/lib/w32api/libuser32.a(dwxfs00322.o)
 .idata$4       0x004554a8        0x4 /usr/lib/w32api/libuser32.a(dwxfs00324.o)
 .idata$4       0x004554ac        0x4 /usr/lib/w32api/libuser32.a(dwxfs00340.o)
 .idata$4       0x004554b0        0x4 /usr/lib/w32api/libuser32.a(dwxfs00345.o)
 .idata$4       0x004554b4        0x4 /usr/lib/w32api/libuser32.a(dwxfs00346.o)
 .idata$4       0x004554b8        0x4 /usr/lib/w32api/libuser32.a(dwxfs00348.o)
 .idata$4       0x004554bc        0x4 /usr/lib/w32api/libuser32.a(dwxfs00349.o)
 .idata$4       0x004554c0        0x4 /usr/lib/w32api/libuser32.a(dwxfs00356.o)
 .idata$4       0x004554c4        0x4 /usr/lib/w32api/libuser32.a(dwxfs00362.o)
 .idata$4       0x004554c8        0x4 /usr/lib/w32api/libuser32.a(dwxfs00368.o)
 .idata$4       0x004554cc        0x4 /usr/lib/w32api/libuser32.a(dwxfs00382.o)
 .idata$4       0x004554d0        0x4 /usr/lib/w32api/libuser32.a(dwxfs00384.o)
 .idata$4       0x004554d4        0x4 /usr/lib/w32api/libuser32.a(dwxfs00387.o)
 .idata$4       0x004554d8        0x4 /usr/lib/w32api/libuser32.a(dwxfs00391.o)
 .idata$4       0x004554dc        0x4 /usr/lib/w32api/libuser32.a(dwxfs00395.o)
 .idata$4       0x004554e0        0x4 /usr/lib/w32api/libuser32.a(dwxfs00397.o)
 .idata$4       0x004554e4        0x4 /usr/lib/w32api/libuser32.a(dwxfs00402.o)
 .idata$4       0x004554e8        0x4 /usr/lib/w32api/libuser32.a(dwxfs00406.o)
 .idata$4       0x004554ec        0x4 /usr/lib/w32api/libuser32.a(dwxfs00423.o)
 .idata$4       0x004554f0        0x4 /usr/lib/w32api/libuser32.a(dwxfs00430.o)
 .idata$4       0x004554f4        0x4 /usr/lib/w32api/libuser32.a(dwxfs00431.o)
 .idata$4       0x004554f8        0x4 /usr/lib/w32api/libuser32.a(dwxfs00434.o)
 .idata$4       0x004554fc        0x4 /usr/lib/w32api/libuser32.a(dwxfs00442.o)
 .idata$4       0x00455500        0x4 /usr/lib/w32api/libuser32.a(dwxfs00443.o)
 .idata$4       0x00455504        0x4 /usr/lib/w32api/libuser32.a(dwxfs00452.o)
 .idata$4       0x00455508        0x4 /usr/lib/w32api/libuser32.a(dwxfs00461.o)
 .idata$4       0x0045550c        0x4 /usr/lib/w32api/libuser32.a(dwxfs00463.o)
 .idata$4       0x00455510        0x4 /usr/lib/w32api/libuser32.a(dwxfs00465.o)
 .idata$4       0x00455514        0x4 /usr/lib/w32api/libuser32.a(dwxfs00476.o)
 .idata$4       0x00455518        0x4 /usr/lib/w32api/libuser32.a(dwxfs00480.o)
 .idata$4       0x0045551c        0x4 /usr/lib/w32api/libuser32.a(dwxfs00487.o)
 .idata$4       0x00455520        0x4 /usr/lib/w32api/libuser32.a(dwxfs00489.o)
 .idata$4       0x00455524        0x4 /usr/lib/w32api/libuser32.a(dwxfs00490.o)
 .idata$4       0x00455528        0x4 /usr/lib/w32api/libuser32.a(dwxfs00501.o)
 .idata$4       0x0045552c        0x4 /usr/lib/w32api/libuser32.a(dwxfs00504.o)
 .idata$4       0x00455530        0x4 /usr/lib/w32api/libuser32.a(dwxfs00512.o)
 .idata$4       0x00455534        0x4 /usr/lib/w32api/libuser32.a(dwxfs00513.o)
 .idata$4       0x00455538        0x4 /usr/lib/w32api/libuser32.a(dwxfs00515.o)
 .idata$4       0x0045553c        0x4 /usr/lib/w32api/libuser32.a(dwxfs00516.o)
 .idata$4       0x00455540        0x4 /usr/lib/w32api/libuser32.a(dwxfs00519.o)
 .idata$4       0x00455544        0x4 /usr/lib/w32api/libuser32.a(dwxfs00521.o)
 .idata$4       0x00455548        0x4 /usr/lib/w32api/libuser32.a(dwxfs00526.o)
 .idata$4       0x0045554c        0x4 /usr/lib/w32api/libuser32.a(dwxfs00529.o)
 .idata$4       0x00455550        0x4 /usr/lib/w32api/libuser32.a(dwxfs00530.o)
 .idata$4       0x00455554        0x4 /usr/lib/w32api/libuser32.a(dwxfs00531.o)
 .idata$4       0x00455558        0x4 /usr/lib/w32api/libuser32.a(dwxfs00550.o)
 .idata$4       0x0045555c        0x4 /usr/lib/w32api/libuser32.a(dwxfs00559.o)
 .idata$4       0x00455560        0x4 /usr/lib/w32api/libuser32.a(dwxfs00565.o)
 .idata$4       0x00455564        0x4 /usr/lib/w32api/libuser32.a(dwxfs00567.o)
 .idata$4       0x00455568        0x4 /usr/lib/w32api/libuser32.a(dwxfs00568.o)
 .idata$4       0x0045556c        0x4 /usr/lib/w32api/libuser32.a(dwxfs00570.o)
 .idata$4       0x00455570        0x4 /usr/lib/w32api/libuser32.a(dwxfs00577.o)
 .idata$4       0x00455574        0x4 /usr/lib/w32api/libuser32.a(dwxfs00578.o)
 .idata$4       0x00455578        0x4 /usr/lib/w32api/libuser32.a(dwxfs00581.o)
 .idata$4       0x0045557c        0x4 /usr/lib/w32api/libuser32.a(dwxfs00587.o)
 .idata$4       0x00455580        0x4 /usr/lib/w32api/libuser32.a(dwxfs00594.o)
 .idata$4       0x00455584        0x4 /usr/lib/w32api/libuser32.a(dwxfs00598.o)
 .idata$4       0x00455588        0x4 /usr/lib/w32api/libuser32.a(dwxfs00604.o)
 .idata$4       0x0045558c        0x4 /usr/lib/w32api/libuser32.a(dwxfs00617.o)
 .idata$4       0x00455590        0x4 /usr/lib/w32api/libuser32.a(dwxfs00627.o)
 .idata$4       0x00455594        0x4 /usr/lib/w32api/libuser32.a(dwxft.o)
 .idata$4       0x00455598        0x4 /usr/lib/w32api/libwinmm.a(dumfh.o)
 .idata$4       0x0045559c        0x4 /usr/lib/w32api/libwinmm.a(dumfs00008.o)
 .idata$4       0x004555a0        0x4 /usr/lib/w32api/libwinmm.a(dumft.o)
 .idata$4       0x004555a4        0x4 /usr/lib/w32api/libwinspool.a(dwbdh.o)
 .idata$4       0x004555a8        0x4 /usr/lib/w32api/libwinspool.a(dwbds00025.o)
 .idata$4       0x004555ac        0x4 /usr/lib/w32api/libwinspool.a(dwbds00059.o)
 .idata$4       0x004555b0        0x4 /usr/lib/w32api/libwinspool.a(dwbds00060.o)
 .idata$4       0x004555b4        0x4 /usr/lib/w32api/libwinspool.a(dwbds00078.o)
 .idata$4       0x004555b8        0x4 /usr/lib/w32api/libwinspool.a(dwbds00102.o)
 .idata$4       0x004555bc        0x4 /usr/lib/w32api/libwinspool.a(dwbds00126.o)
 .idata$4       0x004555c0        0x4 /usr/lib/w32api/libwinspool.a(dwbds00128.o)
 .idata$4       0x004555c4        0x4 /usr/lib/w32api/libwinspool.a(dwbds00130.o)
 .idata$4       0x004555c8        0x4 /usr/lib/w32api/libwinspool.a(dwbdt.o)
 SORT(*)(.idata$5)
 .idata$5       0x004555cc        0x4 /usr/lib/gcc/i686-pc-mingw32/3.4.4/../../../../i686-pc-mingw32/lib/libmoldname.a(dctgh.o)
 .idata$5       0x004555d0        0x4 /usr/lib/gcc/i686-pc-mingw32/3.4.4/../../../../i686-pc-mingw32/lib/libmoldname.a(dctgs00084.o)
                0x004555d0                __imp__strnicmp
 .idata$5       0x004555d4        0x4 /usr/lib/gcc/i686-pc-mingw32/3.4.4/../../../../i686-pc-mingw32/lib/libmoldname.a(dctgt.o)
 .idata$5       0x004555d8        0x4 /usr/lib/gcc/i686-pc-mingw32/3.4.4/../../../../i686-pc-mingw32/lib/libmsvcrt.a(doxfh.o)
 .idata$5       0x004555dc        0x4 /usr/lib/gcc/i686-pc-mingw32/3.4.4/../../../../i686-pc-mingw32/lib/libmsvcrt.a(doxfs00055.o)
                0x004555dc                __imp____getmainargs
 .idata$5       0x004555e0        0x4 /usr/lib/gcc/i686-pc-mingw32/3.4.4/../../../../i686-pc-mingw32/lib/libmsvcrt.a(doxfs00065.o)
                0x004555e0                __imp____mb_cur_max
 .idata$5       0x004555e4        0x4 /usr/lib/gcc/i686-pc-mingw32/3.4.4/../../../../i686-pc-mingw32/lib/libmsvcrt.a(doxfs00077.o)
                0x004555e4                __imp____p__environ
 .idata$5       0x004555e8        0x4 /usr/lib/gcc/i686-pc-mingw32/3.4.4/../../../../i686-pc-mingw32/lib/libmsvcrt.a(doxfs00079.o)
                0x004555e8                __imp____p__fmode
 .idata$5       0x004555ec        0x4 /usr/lib/gcc/i686-pc-mingw32/3.4.4/../../../../i686-pc-mingw32/lib/libmsvcrt.a(doxfs00099.o)
                0x004555ec                __imp____set_app_type
 .idata$5       0x004555f0        0x4 /usr/lib/gcc/i686-pc-mingw32/3.4.4/../../../../i686-pc-mingw32/lib/libmsvcrt.a(doxfs00137.o)
                0x004555f0                __imp___assert
 .idata$5       0x004555f4        0x4 /usr/lib/gcc/i686-pc-mingw32/3.4.4/../../../../i686-pc-mingw32/lib/libmsvcrt.a(doxfs00147.o)
                0x004555f4                __imp___cexit
 .idata$5       0x004555f8        0x4 /usr/lib/gcc/i686-pc-mingw32/3.4.4/../../../../i686-pc-mingw32/lib/libmsvcrt.a(doxfs00266.o)
                0x004555f8                __imp___iob
 .idata$5       0x004555fc        0x4 /usr/lib/gcc/i686-pc-mingw32/3.4.4/../../../../i686-pc-mingw32/lib/libmsvcrt.a(doxfs00268.o)
                0x004555fc                __imp___isctype
 .idata$5       0x00455600        0x4 /usr/lib/gcc/i686-pc-mingw32/3.4.4/../../../../i686-pc-mingw32/lib/libmsvcrt.a(doxfs00383.o)
                0x00455600                __imp___onexit
 .idata$5       0x00455604        0x4 /usr/lib/gcc/i686-pc-mingw32/3.4.4/../../../../i686-pc-mingw32/lib/libmsvcrt.a(doxfs00392.o)
                0x00455604                __imp___pctype
 .idata$5       0x00455608        0x4 /usr/lib/gcc/i686-pc-mingw32/3.4.4/../../../../i686-pc-mingw32/lib/libmsvcrt.a(doxfs00426.o)
                0x00455608                __imp___setmode
 .idata$5       0x0045560c        0x4 /usr/lib/gcc/i686-pc-mingw32/3.4.4/../../../../i686-pc-mingw32/lib/libmsvcrt.a(doxfs00490.o)
                0x0045560c                __imp___vsnprintf
 .idata$5       0x00455610        0x4 /usr/lib/gcc/i686-pc-mingw32/3.4.4/../../../../i686-pc-mingw32/lib/libmsvcrt.a(doxfs00590.o)
                0x00455610                __imp__atexit
 .idata$5       0x00455614        0x4 /usr/lib/gcc/i686-pc-mingw32/3.4.4/../../../../i686-pc-mingw32/lib/libmsvcrt.a(doxfs00591.o)
                0x00455614                __imp__atof
 .idata$5       0x00455618        0x4 /usr/lib/gcc/i686-pc-mingw32/3.4.4/../../../../i686-pc-mingw32/lib/libmsvcrt.a(doxfs00592.o)
                0x00455618                __imp__atoi
 .idata$5       0x0045561c        0x4 /usr/lib/gcc/i686-pc-mingw32/3.4.4/../../../../i686-pc-mingw32/lib/libmsvcrt.a(doxfs00604.o)
                0x0045561c                __imp__exit
 .idata$5       0x00455620        0x4 /usr/lib/gcc/i686-pc-mingw32/3.4.4/../../../../i686-pc-mingw32/lib/libmsvcrt.a(doxfs00607.o)
                0x00455620                __imp__fclose
 .idata$5       0x00455624        0x4 /usr/lib/gcc/i686-pc-mingw32/3.4.4/../../../../i686-pc-mingw32/lib/libmsvcrt.a(doxfs00610.o)
                0x00455624                __imp__fflush
 .idata$5       0x00455628        0x4 /usr/lib/gcc/i686-pc-mingw32/3.4.4/../../../../i686-pc-mingw32/lib/libmsvcrt.a(doxfs00611.o)
                0x00455628                __imp__fgetc
 .idata$5       0x0045562c        0x4 /usr/lib/gcc/i686-pc-mingw32/3.4.4/../../../../i686-pc-mingw32/lib/libmsvcrt.a(doxfs00613.o)
                0x0045562c                __imp__fgets
 .idata$5       0x00455630        0x4 /usr/lib/gcc/i686-pc-mingw32/3.4.4/../../../../i686-pc-mingw32/lib/libmsvcrt.a(doxfs00618.o)
                0x00455630                __imp__fopen
 .idata$5       0x00455634        0x4 /usr/lib/gcc/i686-pc-mingw32/3.4.4/../../../../i686-pc-mingw32/lib/libmsvcrt.a(doxfs00619.o)
                0x00455634                __imp__fprintf
 .idata$5       0x00455638        0x4 /usr/lib/gcc/i686-pc-mingw32/3.4.4/../../../../i686-pc-mingw32/lib/libmsvcrt.a(doxfs00621.o)
                0x00455638                __imp__fputs
 .idata$5       0x0045563c        0x4 /usr/lib/gcc/i686-pc-mingw32/3.4.4/../../../../i686-pc-mingw32/lib/libmsvcrt.a(doxfs00625.o)
                0x0045563c                __imp__free
 .idata$5       0x00455640        0x4 /usr/lib/gcc/i686-pc-mingw32/3.4.4/../../../../i686-pc-mingw32/lib/libmsvcrt.a(doxfs00633.o)
                0x00455640                __imp__fwrite
 .idata$5       0x00455644        0x4 /usr/lib/gcc/i686-pc-mingw32/3.4.4/../../../../i686-pc-mingw32/lib/libmsvcrt.a(doxfs00637.o)
                0x00455644                __imp__getenv
 .idata$5       0x00455648        0x4 /usr/lib/gcc/i686-pc-mingw32/3.4.4/../../../../i686-pc-mingw32/lib/libmsvcrt.a(doxfs00676.o)
                0x00455648                __imp__malloc
 .idata$5       0x0045564c        0x4 /usr/lib/gcc/i686-pc-mingw32/3.4.4/../../../../i686-pc-mingw32/lib/libmsvcrt.a(doxfs00682.o)
                0x0045564c                __imp__memcpy
 .idata$5       0x00455650        0x4 /usr/lib/gcc/i686-pc-mingw32/3.4.4/../../../../i686-pc-mingw32/lib/libmsvcrt.a(doxfs00683.o)
                0x00455650                __imp__memmove
 .idata$5       0x00455654        0x4 /usr/lib/gcc/i686-pc-mingw32/3.4.4/../../../../i686-pc-mingw32/lib/libmsvcrt.a(doxfs00684.o)
                0x00455654                __imp__memset
 .idata$5       0x00455658        0x4 /usr/lib/gcc/i686-pc-mingw32/3.4.4/../../../../i686-pc-mingw32/lib/libmsvcrt.a(doxfs00695.o)
                0x00455658                __imp__qsort
 .idata$5       0x0045565c        0x4 /usr/lib/gcc/i686-pc-mingw32/3.4.4/../../../../i686-pc-mingw32/lib/libmsvcrt.a(doxfs00698.o)
                0x0045565c                __imp__realloc
 .idata$5       0x00455660        0x4 /usr/lib/gcc/i686-pc-mingw32/3.4.4/../../../../i686-pc-mingw32/lib/libmsvcrt.a(doxfs00699.o)
                0x00455660                __imp__remove
 .idata$5       0x00455664        0x4 /usr/lib/gcc/i686-pc-mingw32/3.4.4/../../../../i686-pc-mingw32/lib/libmsvcrt.a(doxfs00706.o)
                0x00455664                __imp__signal
 .idata$5       0x00455668        0x4 /usr/lib/gcc/i686-pc-mingw32/3.4.4/../../../../i686-pc-mingw32/lib/libmsvcrt.a(doxfs00709.o)
                0x00455668                __imp__sprintf
 .idata$5       0x0045566c        0x4 /usr/lib/gcc/i686-pc-mingw32/3.4.4/../../../../i686-pc-mingw32/lib/libmsvcrt.a(doxfs00712.o)
                0x0045566c                __imp__sscanf
 .idata$5       0x00455670        0x4 /usr/lib/gcc/i686-pc-mingw32/3.4.4/../../../../i686-pc-mingw32/lib/libmsvcrt.a(doxfs00713.o)
                0x00455670                __imp__strcat
 .idata$5       0x00455674        0x4 /usr/lib/gcc/i686-pc-mingw32/3.4.4/../../../../i686-pc-mingw32/lib/libmsvcrt.a(doxfs00714.o)
                0x00455674                __imp__strchr
 .idata$5       0x00455678        0x4 /usr/lib/gcc/i686-pc-mingw32/3.4.4/../../../../i686-pc-mingw32/lib/libmsvcrt.a(doxfs00715.o)
                0x00455678                __imp__strcmp
 .idata$5       0x0045567c        0x4 /usr/lib/gcc/i686-pc-mingw32/3.4.4/../../../../i686-pc-mingw32/lib/libmsvcrt.a(doxfs00717.o)
                0x0045567c                __imp__strcpy
 .idata$5       0x00455680        0x4 /usr/lib/gcc/i686-pc-mingw32/3.4.4/../../../../i686-pc-mingw32/lib/libmsvcrt.a(doxfs00718.o)
                0x00455680                __imp__strcspn
 .idata$5       0x00455684        0x4 /usr/lib/gcc/i686-pc-mingw32/3.4.4/../../../../i686-pc-mingw32/lib/libmsvcrt.a(doxfs00720.o)
                0x00455684                __imp__strftime
 .idata$5       0x00455688        0x4 /usr/lib/gcc/i686-pc-mingw32/3.4.4/../../../../i686-pc-mingw32/lib/libmsvcrt.a(doxfs00721.o)
                0x00455688                __imp__strlen
 .idata$5       0x0045568c        0x4 /usr/lib/gcc/i686-pc-mingw32/3.4.4/../../../../i686-pc-mingw32/lib/libmsvcrt.a(doxfs00722.o)
                0x0045568c                __imp__strncat
 .idata$5       0x00455690        0x4 /usr/lib/gcc/i686-pc-mingw32/3.4.4/../../../../i686-pc-mingw32/lib/libmsvcrt.a(doxfs00723.o)
                0x00455690                __imp__strncmp
 .idata$5       0x00455694        0x4 /usr/lib/gcc/i686-pc-mingw32/3.4.4/../../../../i686-pc-mingw32/lib/libmsvcrt.a(doxfs00724.o)
                0x00455694                __imp__strncpy
 .idata$5       0x00455698        0x4 /usr/lib/gcc/i686-pc-mingw32/3.4.4/../../../../i686-pc-mingw32/lib/libmsvcrt.a(doxfs00726.o)
                0x00455698                __imp__strrchr
 .idata$5       0x0045569c        0x4 /usr/lib/gcc/i686-pc-mingw32/3.4.4/../../../../i686-pc-mingw32/lib/libmsvcrt.a(doxfs00730.o)
                0x0045569c                __imp__strtok
 .idata$5       0x004556a0        0x4 /usr/lib/gcc/i686-pc-mingw32/3.4.4/../../../../i686-pc-mingw32/lib/libmsvcrt.a(doxfs00731.o)
                0x004556a0                __imp__strtol
 .idata$5       0x004556a4        0x4 /usr/lib/gcc/i686-pc-mingw32/3.4.4/../../../../i686-pc-mingw32/lib/libmsvcrt.a(doxfs00732.o)
                0x004556a4                __imp__strtoul
 .idata$5       0x004556a8        0x4 /usr/lib/gcc/i686-pc-mingw32/3.4.4/../../../../i686-pc-mingw32/lib/libmsvcrt.a(doxfs00742.o)
                0x004556a8                __imp__tolower
 .idata$5       0x004556ac        0x4 /usr/lib/gcc/i686-pc-mingw32/3.4.4/../../../../i686-pc-mingw32/lib/libmsvcrt.a(doxfs00743.o)
                0x004556ac                __imp__toupper
 .idata$5       0x004556b0        0x4 /usr/lib/gcc/i686-pc-mingw32/3.4.4/../../../../i686-pc-mingw32/lib/libmsvcrt.a(doxft.o)
 .idata$5       0x004556b4        0x4 /usr/lib/w32api/libadvapi32.a(dykgh.o)
 .idata$5       0x004556b8        0x4 /usr/lib/w32api/libadvapi32.a(dykgs00245.o)
                0x004556b8                __imp__GetUserNameA@8
 .idata$5       0x004556bc        0x4 /usr/lib/w32api/libadvapi32.a(dykgs00386.o)
                0x004556bc                __imp__RegCloseKey@4
 .idata$5       0x004556c0        0x4 /usr/lib/w32api/libadvapi32.a(dykgs00389.o)
                0x004556c0                __imp__RegCreateKeyA@12
 .idata$5       0x004556c4        0x4 /usr/lib/w32api/libadvapi32.a(dykgs00393.o)
                0x004556c4                __imp__RegDeleteKeyA@8
 .idata$5       0x004556c8        0x4 /usr/lib/w32api/libadvapi32.a(dykgs00400.o)
                0x004556c8                __imp__RegEnumKeyA@16
 .idata$5       0x004556cc        0x4 /usr/lib/w32api/libadvapi32.a(dykgs00412.o)
                0x004556cc                __imp__RegOpenKeyA@12
 .idata$5       0x004556d0        0x4 /usr/lib/w32api/libadvapi32.a(dykgs00423.o)
                0x004556d0                __imp__RegQueryValueExA@24
 .idata$5       0x004556d4        0x4 /usr/lib/w32api/libadvapi32.a(dykgs00434.o)
                0x004556d4                __imp__RegSetValueExA@24
 .idata$5       0x004556d8        0x4 /usr/lib/w32api/libadvapi32.a(dykgt.o)
 .idata$5       0x004556dc        0x4 /usr/lib/w32api/libcomctl32.a(dkzhh.o)
 .idata$5       0x004556e0        0x4 /usr/lib/w32api/libcomctl32.a(dkzhs00041.o)
                0x004556e0                __imp__DrawInsert@12
 .idata$5       0x004556e4        0x4 /usr/lib/w32api/libcomctl32.a(dkzhs00091.o)
                0x004556e4                __imp__InitCommonControls@0
 .idata$5       0x004556e8        0x4 /usr/lib/w32api/libcomctl32.a(dkzhs00093.o)
                0x004556e8                __imp__LBItemFromPt@16
 .idata$5       0x004556ec        0x4 /usr/lib/w32api/libcomctl32.a(dkzhs00094.o)
                0x004556ec                __imp__MakeDragList@4
 .idata$5       0x004556f0        0x4 /usr/lib/w32api/libcomctl32.a(dkzht.o)
 .idata$5       0x004556f4        0x4 /usr/lib/w32api/libcomdlg32.a(dmych.o)
 .idata$5       0x004556f8        0x4 /usr/lib/w32api/libcomdlg32.a(dmycs00000.o)
                0x004556f8                __imp__ChooseColorA@4
 .idata$5       0x004556fc        0x4 /usr/lib/w32api/libcomdlg32.a(dmycs00002.o)
                0x004556fc                __imp__ChooseFontA@4
 .idata$5       0x00455700        0x4 /usr/lib/w32api/libcomdlg32.a(dmycs00009.o)
                0x00455700                __imp__GetOpenFileNameA@4
 .idata$5       0x00455704        0x4 /usr/lib/w32api/libcomdlg32.a(dmycs00011.o)
                0x00455704                __imp__GetSaveFileNameA@4
 .idata$5       0x00455708        0x4 /usr/lib/w32api/libcomdlg32.a(dmyct.o)
 .idata$5       0x0045570c        0x4 /usr/lib/w32api/libgdi32.a(dyohh.o)
 .idata$5       0x00455710        0x4 /usr/lib/w32api/libgdi32.a(dyohs00028.o)
                0x00455710                __imp__CreateBitmap@20
 .idata$5       0x00455714        0x4 /usr/lib/w32api/libgdi32.a(dyohs00033.o)
                0x00455714                __imp__CreateCompatibleBitmap@12
 .idata$5       0x00455718        0x4 /usr/lib/w32api/libgdi32.a(dyohs00034.o)
                0x00455718                __imp__CreateCompatibleDC@4
 .idata$5       0x0045571c        0x4 /usr/lib/w32api/libgdi32.a(dyohs00046.o)
                0x0045571c                __imp__CreateFontA@56
 .idata$5       0x00455720        0x4 /usr/lib/w32api/libgdi32.a(dyohs00047.o)
                0x00455720                __imp__CreateFontIndirectA@4
 .idata$5       0x00455724        0x4 /usr/lib/w32api/libgdi32.a(dyohs00056.o)
                0x00455724                __imp__CreatePalette@4
 .idata$5       0x00455728        0x4 /usr/lib/w32api/libgdi32.a(dyohs00058.o)
                0x00455728                __imp__CreatePen@12
 .idata$5       0x0045572c        0x4 /usr/lib/w32api/libgdi32.a(dyohs00067.o)
                0x0045572c                __imp__CreateSolidBrush@4
 .idata$5       0x00455730        0x4 /usr/lib/w32api/libgdi32.a(dyohs00070.o)
                0x00455730                __imp__DeleteDC@4
 .idata$5       0x00455734        0x4 /usr/lib/w32api/libgdi32.a(dyohs00073.o)
                0x00455734                __imp__DeleteObject@4
 .idata$5       0x00455738        0x4 /usr/lib/w32api/libgdi32.a(dyohs00096.o)
                0x00455738                __imp__ExcludeClipRect@20
 .idata$5       0x0045573c        0x4 /usr/lib/w32api/libgdi32.a(dyohs00102.o)
                0x0045573c                __imp__ExtTextOutA@32
 .idata$5       0x00455740        0x4 /usr/lib/w32api/libgdi32.a(dyohs00103.o)
                0x00455740                __imp__ExtTextOutW@32
 .idata$5       0x00455744        0x4 /usr/lib/w32api/libgdi32.a(dyohs00129.o)
                0x00455744                __imp__GetCharWidth32A@16
 .idata$5       0x00455748        0x4 /usr/lib/w32api/libgdi32.a(dyohs00130.o)
                0x00455748                __imp__GetCharWidth32W@16
 .idata$5       0x0045574c        0x4 /usr/lib/w32api/libgdi32.a(dyohs00131.o)
                0x0045574c                __imp__GetCharWidthA@16
 .idata$5       0x00455750        0x4 /usr/lib/w32api/libgdi32.a(dyohs00134.o)
                0x00455750                __imp__GetCharWidthW@16
 .idata$5       0x00455754        0x4 /usr/lib/w32api/libgdi32.a(dyohs00136.o)
                0x00455754                __imp__GetCharacterPlacementW@24
 .idata$5       0x00455758        0x4 /usr/lib/w32api/libgdi32.a(dyohs00146.o)
                0x00455758                __imp__GetDeviceCaps@8
 .idata$5       0x0045575c        0x4 /usr/lib/w32api/libgdi32.a(dyohs00183.o)
                0x0045575c                __imp__GetObjectA@12
 .idata$5       0x00455760        0x4 /usr/lib/w32api/libgdi32.a(dyohs00190.o)
                0x00455760                __imp__GetPixel@12
 .idata$5       0x00455764        0x4 /usr/lib/w32api/libgdi32.a(dyohs00199.o)
                0x00455764                __imp__GetStockObject@4
 .idata$5       0x00455768        0x4 /usr/lib/w32api/libgdi32.a(dyohs00208.o)
                0x00455768                __imp__GetTextExtentExPointA@28
 .idata$5       0x0045576c        0x4 /usr/lib/w32api/libgdi32.a(dyohs00211.o)
                0x0045576c                __imp__GetTextExtentPoint32A@16
 .idata$5       0x00455770        0x4 /usr/lib/w32api/libgdi32.a(dyohs00217.o)
                0x00455770                __imp__GetTextMetricsA@8
 .idata$5       0x00455774        0x4 /usr/lib/w32api/libgdi32.a(dyohs00225.o)
                0x00455774                __imp__IntersectClipRect@20
 .idata$5       0x00455778        0x4 /usr/lib/w32api/libgdi32.a(dyohs00229.o)
                0x00455778                __imp__LineTo@12
 .idata$5       0x0045577c        0x4 /usr/lib/w32api/libgdi32.a(dyohs00232.o)
                0x0045577c                __imp__MoveToEx@16
 .idata$5       0x00455780        0x4 /usr/lib/w32api/libgdi32.a(dyohs00254.o)
                0x00455780                __imp__Polyline@12
 .idata$5       0x00455784        0x4 /usr/lib/w32api/libgdi32.a(dyohs00258.o)
                0x00455784                __imp__RealizePalette@4
 .idata$5       0x00455788        0x4 /usr/lib/w32api/libgdi32.a(dyohs00261.o)
                0x00455788                __imp__Rectangle@20
 .idata$5       0x0045578c        0x4 /usr/lib/w32api/libgdi32.a(dyohs00279.o)
                0x0045578c                __imp__SelectObject@8
 .idata$5       0x00455790        0x4 /usr/lib/w32api/libgdi32.a(dyohs00280.o)
                0x00455790                __imp__SelectPalette@12
 .idata$5       0x00455794        0x4 /usr/lib/w32api/libgdi32.a(dyohs00285.o)
                0x00455794                __imp__SetBkColor@8
 .idata$5       0x00455798        0x4 /usr/lib/w32api/libgdi32.a(dyohs00286.o)
                0x00455798                __imp__SetBkMode@8
 .idata$5       0x0045579c        0x4 /usr/lib/w32api/libgdi32.a(dyohs00304.o)
                0x0045579c                __imp__SetMapMode@8
 .idata$5       0x004557a0        0x4 /usr/lib/w32api/libgdi32.a(dyohs00309.o)
                0x004557a0                __imp__SetPaletteEntries@16
 .idata$5       0x004557a4        0x4 /usr/lib/w32api/libgdi32.a(dyohs00310.o)
                0x004557a4                __imp__SetPixel@16
 .idata$5       0x004557a8        0x4 /usr/lib/w32api/libgdi32.a(dyohs00319.o)
                0x004557a8                __imp__SetTextAlign@8
 .idata$5       0x004557ac        0x4 /usr/lib/w32api/libgdi32.a(dyohs00321.o)
                0x004557ac                __imp__SetTextColor@8
 .idata$5       0x004557b0        0x4 /usr/lib/w32api/libgdi32.a(dyohs00337.o)
                0x004557b0                __imp__TextOutA@20
 .idata$5       0x004557b4        0x4 /usr/lib/w32api/libgdi32.a(dyohs00339.o)
                0x004557b4                __imp__TranslateCharsetInfo@12
 .idata$5       0x004557b8        0x4 /usr/lib/w32api/libgdi32.a(dyohs00340.o)
                0x004557b8                __imp__UnrealizeObject@4
 .idata$5       0x004557bc        0x4 /usr/lib/w32api/libgdi32.a(dyohs00341.o)
                0x004557bc                __imp__UpdateColors@4
 .idata$5       0x004557c0        0x4 /usr/lib/w32api/libgdi32.a(dyoht.o)
 .idata$5       0x004557c4        0x4 /usr/lib/w32api/libimm32.a(dasfh.o)
 .idata$5       0x004557c8        0x4 /usr/lib/w32api/libimm32.a(dasfs00023.o)
                0x004557c8                __imp__ImmGetCompositionStringW@16
 .idata$5       0x004557cc        0x4 /usr/lib/w32api/libimm32.a(dasfs00025.o)
                0x004557cc                __imp__ImmGetContext@4
 .idata$5       0x004557d0        0x4 /usr/lib/w32api/libimm32.a(dasfs00059.o)
                0x004557d0                __imp__ImmReleaseContext@8
 .idata$5       0x004557d4        0x4 /usr/lib/w32api/libimm32.a(dasfs00061.o)
                0x004557d4                __imp__ImmSetCompositionFontA@8
 .idata$5       0x004557d8        0x4 /usr/lib/w32api/libimm32.a(dasfs00065.o)
                0x004557d8                __imp__ImmSetCompositionWindow@8
 .idata$5       0x004557dc        0x4 /usr/lib/w32api/libimm32.a(dasft.o)
 .idata$5       0x004557e0        0x4 /usr/lib/w32api/libkernel32.a(dyuhh.o)
 .idata$5       0x004557e4        0x4 /usr/lib/w32api/libkernel32.a(dyuhs00009.o)
                0x004557e4                __imp__AllocConsole@0
 .idata$5       0x004557e8        0x4 /usr/lib/w32api/libkernel32.a(dyuhs00018.o)
                0x004557e8                __imp__Beep@8
 .idata$5       0x004557ec        0x4 /usr/lib/w32api/libkernel32.a(dyuhs00035.o)
                0x004557ec                __imp__ClearCommBreak@4
 .idata$5       0x004557f0        0x4 /usr/lib/w32api/libkernel32.a(dyuhs00038.o)
                0x004557f0                __imp__CloseHandle@4
 .idata$5       0x004557f4        0x4 /usr/lib/w32api/libkernel32.a(dyuhs00064.o)
                0x004557f4                __imp__CreateEventA@16
 .idata$5       0x004557f8        0x4 /usr/lib/w32api/libkernel32.a(dyuhs00068.o)
                0x004557f8                __imp__CreateFileA@28
 .idata$5       0x004557fc        0x4 /usr/lib/w32api/libkernel32.a(dyuhs00069.o)
                0x004557fc                __imp__CreateFileMappingA@24
 .idata$5       0x00455800        0x4 /usr/lib/w32api/libkernel32.a(dyuhs00084.o)
                0x00455800                __imp__CreatePipe@16
 .idata$5       0x00455804        0x4 /usr/lib/w32api/libkernel32.a(dyuhs00085.o)
                0x00455804                __imp__CreateProcessA@40
 .idata$5       0x00455808        0x4 /usr/lib/w32api/libkernel32.a(dyuhs00091.o)
                0x00455808                __imp__CreateThread@24
 .idata$5       0x0045580c        0x4 /usr/lib/w32api/libkernel32.a(dyuhs00156.o)
                0x0045580c                __imp__ExitProcess@4
 .idata$5       0x00455810        0x4 /usr/lib/w32api/libkernel32.a(dyuhs00214.o)
                0x00455810                __imp__FreeLibrary@4
 .idata$5       0x00455814        0x4 /usr/lib/w32api/libkernel32.a(dyuhs00220.o)
                0x00455814                __imp__GetACP@0
 .idata$5       0x00455818        0x4 /usr/lib/w32api/libkernel32.a(dyuhs00226.o)
                0x00455818                __imp__GetCPInfo@8
 .idata$5       0x0045581c        0x4 /usr/lib/w32api/libkernel32.a(dyuhs00235.o)
                0x0045581c                __imp__GetCommState@8
 .idata$5       0x00455820        0x4 /usr/lib/w32api/libkernel32.a(dyuhs00237.o)
                0x00455820                __imp__GetCommandLineA@0
 .idata$5       0x00455824        0x4 /usr/lib/w32api/libkernel32.a(dyuhs00281.o)
                0x00455824                __imp__GetCurrentDirectoryA@8
 .idata$5       0x00455828        0x4 /usr/lib/w32api/libkernel32.a(dyuhs00303.o)
                0x00455828                __imp__GetEnvironmentVariableA@12
 .idata$5       0x0045582c        0x4 /usr/lib/w32api/libkernel32.a(dyuhs00325.o)
                0x0045582c                __imp__GetLastError@0
 .idata$5       0x00455830        0x4 /usr/lib/w32api/libkernel32.a(dyuhs00326.o)
                0x00455830                __imp__GetLocalTime@4
 .idata$5       0x00455834        0x4 /usr/lib/w32api/libkernel32.a(dyuhs00327.o)
                0x00455834                __imp__GetLocaleInfoA@16
 .idata$5       0x00455838        0x4 /usr/lib/w32api/libkernel32.a(dyuhs00335.o)
                0x00455838                __imp__GetModuleFileNameA@12
 .idata$5       0x0045583c        0x4 /usr/lib/w32api/libkernel32.a(dyuhs00337.o)
                0x0045583c                __imp__GetModuleHandleA@4
 .idata$5       0x00455840        0x4 /usr/lib/w32api/libkernel32.a(dyuhs00351.o)
                0x00455840                __imp__GetOEMCP@0
 .idata$5       0x00455844        0x4 /usr/lib/w32api/libkernel32.a(dyuhs00352.o)
                0x00455844                __imp__GetOverlappedResult@16
 .idata$5       0x00455848        0x4 /usr/lib/w32api/libkernel32.a(dyuhs00364.o)
                0x00455848                __imp__GetProcAddress@8
 .idata$5       0x0045584c        0x4 /usr/lib/w32api/libkernel32.a(dyuhs00386.o)
                0x0045584c                __imp__GetStartupInfoA@4
 .idata$5       0x00455850        0x4 /usr/lib/w32api/libkernel32.a(dyuhs00388.o)
                0x00455850                __imp__GetStdHandle@4
 .idata$5       0x00455854        0x4 /usr/lib/w32api/libkernel32.a(dyuhs00423.o)
                0x00455854                __imp__GetTickCount@0
 .idata$5       0x00455858        0x4 /usr/lib/w32api/libkernel32.a(dyuhs00433.o)
                0x00455858                __imp__GetVersionExA@4
 .idata$5       0x0045585c        0x4 /usr/lib/w32api/libkernel32.a(dyuhs00443.o)
                0x0045585c                __imp__GetWindowsDirectoryA@8
 .idata$5       0x00455860        0x4 /usr/lib/w32api/libkernel32.a(dyuhs00448.o)
                0x00455860                __imp__GlobalAlloc@8
 .idata$5       0x00455864        0x4 /usr/lib/w32api/libkernel32.a(dyuhs00455.o)
                0x00455864                __imp__GlobalFree@4
 .idata$5       0x00455868        0x4 /usr/lib/w32api/libkernel32.a(dyuhs00459.o)
                0x00455868                __imp__GlobalLock@4
 .idata$5       0x0045586c        0x4 /usr/lib/w32api/libkernel32.a(dyuhs00467.o)
                0x0045586c                __imp__GlobalUnlock@4
 .idata$5       0x00455870        0x4 /usr/lib/w32api/libkernel32.a(dyuhs00512.o)
                0x00455870                __imp__IsDBCSLeadByteEx@8
 .idata$5       0x00455874        0x4 /usr/lib/w32api/libkernel32.a(dyuhs00524.o)
                0x00455874                __imp__LoadLibraryA@4
 .idata$5       0x00455878        0x4 /usr/lib/w32api/libkernel32.a(dyuhs00546.o)
                0x00455878                __imp__MapViewOfFile@20
 .idata$5       0x0045587c        0x4 /usr/lib/w32api/libkernel32.a(dyuhs00559.o)
                0x0045587c                __imp__MulDiv@12
 .idata$5       0x00455880        0x4 /usr/lib/w32api/libkernel32.a(dyuhs00560.o)
                0x00455880                __imp__MultiByteToWideChar@24
 .idata$5       0x00455884        0x4 /usr/lib/w32api/libkernel32.a(dyuhs00616.o)
                0x00455884                __imp__ReadFile@20
 .idata$5       0x00455888        0x4 /usr/lib/w32api/libkernel32.a(dyuhs00652.o)
                0x00455888                __imp__SetCommBreak@4
 .idata$5       0x0045588c        0x4 /usr/lib/w32api/libkernel32.a(dyuhs00655.o)
                0x0045588c                __imp__SetCommState@8
 .idata$5       0x00455890        0x4 /usr/lib/w32api/libkernel32.a(dyuhs00656.o)
                0x00455890                __imp__SetCommTimeouts@8
 .idata$5       0x00455894        0x4 /usr/lib/w32api/libkernel32.a(dyuhs00688.o)
                0x00455894                __imp__SetCurrentDirectoryA@4
 .idata$5       0x00455898        0x4 /usr/lib/w32api/libkernel32.a(dyuhs00698.o)
                0x00455898                __imp__SetEvent@4
 .idata$5       0x0045589c        0x4 /usr/lib/w32api/libkernel32.a(dyuhs00710.o)
                0x0045589c                __imp__SetHandleInformation@12
 .idata$5       0x004558a0        0x4 /usr/lib/w32api/libkernel32.a(dyuhs00739.o)
                0x004558a0                __imp__SetUnhandledExceptionFilter@4
 .idata$5       0x004558a4        0x4 /usr/lib/w32api/libkernel32.a(dyuhs00776.o)
                0x004558a4                __imp__UnmapViewOfFile@4
 .idata$5       0x004558a8        0x4 /usr/lib/w32api/libkernel32.a(dyuhs00810.o)
                0x004558a8                __imp__WaitForSingleObject@8
 .idata$5       0x004558ac        0x4 /usr/lib/w32api/libkernel32.a(dyuhs00814.o)
                0x004558ac                __imp__WideCharToMultiByte@32
 .idata$5       0x004558b0        0x4 /usr/lib/w32api/libkernel32.a(dyuhs00827.o)
                0x004558b0                __imp__WriteFile@20
 .idata$5       0x004558b4        0x4 /usr/lib/w32api/libkernel32.a(dyuht.o)
 .idata$5       0x004558b8        0x4 /usr/lib/w32api/libshell32.a(dsdfh.o)
 .idata$5       0x004558bc        0x4 /usr/lib/w32api/libshell32.a(dsdfs00143.o)
                0x004558bc                __imp__ShellExecuteA@24
 .idata$5       0x004558c0        0x4 /usr/lib/w32api/libshell32.a(dsdft.o)
 .idata$5       0x004558c4        0x4 /usr/lib/w32api/libuser32.a(dwxfh.o)
 .idata$5       0x004558c8        0x4 /usr/lib/w32api/libuser32.a(dwxfs00006.o)
                0x004558c8                __imp__AppendMenuA@16
 .idata$5       0x004558cc        0x4 /usr/lib/w32api/libuser32.a(dwxfs00011.o)
                0x004558cc                __imp__BeginPaint@8
 .idata$5       0x004558d0        0x4 /usr/lib/w32api/libuser32.a(dwxfs00053.o)
                0x004558d0                __imp__CheckDlgButton@12
 .idata$5       0x004558d4        0x4 /usr/lib/w32api/libuser32.a(dwxfs00054.o)
                0x004558d4                __imp__CheckMenuItem@12
 .idata$5       0x004558d8        0x4 /usr/lib/w32api/libuser32.a(dwxfs00056.o)
                0x004558d8                __imp__CheckRadioButton@16
 .idata$5       0x004558dc        0x4 /usr/lib/w32api/libuser32.a(dwxfs00061.o)
                0x004558dc                __imp__CloseClipboard@0
 .idata$5       0x004558e0        0x4 /usr/lib/w32api/libuser32.a(dwxfs00073.o)
                0x004558e0                __imp__CreateCaret@16
 .idata$5       0x004558e4        0x4 /usr/lib/w32api/libuser32.a(dwxfs00079.o)
                0x004558e4                __imp__CreateDialogParamA@20
 .idata$5       0x004558e8        0x4 /usr/lib/w32api/libuser32.a(dwxfs00087.o)
                0x004558e8                __imp__CreateMenu@0
 .idata$5       0x004558ec        0x4 /usr/lib/w32api/libuser32.a(dwxfs00088.o)
                0x004558ec                __imp__CreatePopupMenu@0
 .idata$5       0x004558f0        0x4 /usr/lib/w32api/libuser32.a(dwxfs00089.o)
                0x004558f0                __imp__CreateWindowExA@48
 .idata$5       0x004558f4        0x4 /usr/lib/w32api/libuser32.a(dwxfs00126.o)
                0x004558f4                __imp__DefDlgProcA@16
 .idata$5       0x004558f8        0x4 /usr/lib/w32api/libuser32.a(dwxfs00133.o)
                0x004558f8                __imp__DefWindowProcA@16
 .idata$5       0x004558fc        0x4 /usr/lib/w32api/libuser32.a(dwxfs00136.o)
                0x004558fc                __imp__DeleteMenu@12
 .idata$5       0x00455900        0x4 /usr/lib/w32api/libuser32.a(dwxfs00139.o)
                0x00455900                __imp__DestroyCaret@0
 .idata$5       0x00455904        0x4 /usr/lib/w32api/libuser32.a(dwxfs00143.o)
                0x00455904                __imp__DestroyWindow@4
 .idata$5       0x00455908        0x4 /usr/lib/w32api/libuser32.a(dwxfs00146.o)
                0x00455908                __imp__DialogBoxParamA@20
 .idata$5       0x0045590c        0x4 /usr/lib/w32api/libuser32.a(dwxfs00148.o)
                0x0045590c                __imp__DispatchMessageA@4
 .idata$5       0x00455910        0x4 /usr/lib/w32api/libuser32.a(dwxfs00162.o)
                0x00455910                __imp__DrawEdge@16
 .idata$5       0x00455914        0x4 /usr/lib/w32api/libuser32.a(dwxfs00176.o)
                0x00455914                __imp__EmptyClipboard@0
 .idata$5       0x00455918        0x4 /usr/lib/w32api/libuser32.a(dwxfs00177.o)
                0x00455918                __imp__EnableMenuItem@12
 .idata$5       0x0045591c        0x4 /usr/lib/w32api/libuser32.a(dwxfs00179.o)
                0x0045591c                __imp__EnableWindow@8
 .idata$5       0x00455920        0x4 /usr/lib/w32api/libuser32.a(dwxfs00181.o)
                0x00455920                __imp__EndDialog@8
 .idata$5       0x00455924        0x4 /usr/lib/w32api/libuser32.a(dwxfs00183.o)
                0x00455924                __imp__EndPaint@8
 .idata$5       0x00455928        0x4 /usr/lib/w32api/libuser32.a(dwxfs00213.o)
                0x00455928                __imp__FlashWindow@8
 .idata$5       0x0045592c        0x4 /usr/lib/w32api/libuser32.a(dwxfs00223.o)
                0x0045592c                __imp__GetCapture@0
 .idata$5       0x00455930        0x4 /usr/lib/w32api/libuser32.a(dwxfs00224.o)
                0x00455930                __imp__GetCaretBlinkTime@0
 .idata$5       0x00455934        0x4 /usr/lib/w32api/libuser32.a(dwxfs00235.o)
                0x00455934                __imp__GetClientRect@8
 .idata$5       0x00455938        0x4 /usr/lib/w32api/libuser32.a(dwxfs00237.o)
                0x00455938                __imp__GetClipboardData@4
 .idata$5       0x0045593c        0x4 /usr/lib/w32api/libuser32.a(dwxfs00246.o)
                0x0045593c                __imp__GetCursorPos@4
 .idata$5       0x00455940        0x4 /usr/lib/w32api/libuser32.a(dwxfs00247.o)
                0x00455940                __imp__GetDC@4
 .idata$5       0x00455944        0x4 /usr/lib/w32api/libuser32.a(dwxfs00249.o)
                0x00455944                __imp__GetDesktopWindow@0
 .idata$5       0x00455948        0x4 /usr/lib/w32api/libuser32.a(dwxfs00252.o)
                0x00455948                __imp__GetDlgItem@8
 .idata$5       0x0045594c        0x4 /usr/lib/w32api/libuser32.a(dwxfs00254.o)
                0x0045594c                __imp__GetDlgItemTextA@16
 .idata$5       0x00455950        0x4 /usr/lib/w32api/libuser32.a(dwxfs00256.o)
                0x00455950                __imp__GetDoubleClickTime@0
 .idata$5       0x00455954        0x4 /usr/lib/w32api/libuser32.a(dwxfs00258.o)
                0x00455954                __imp__GetForegroundWindow@0
 .idata$5       0x00455958        0x4 /usr/lib/w32api/libuser32.a(dwxfs00268.o)
                0x00455958                __imp__GetKeyboardLayout@4
 .idata$5       0x0045595c        0x4 /usr/lib/w32api/libuser32.a(dwxfs00272.o)
                0x0045595c                __imp__GetKeyboardState@4
 .idata$5       0x00455960        0x4 /usr/lib/w32api/libuser32.a(dwxfs00292.o)
                0x00455960                __imp__GetMessageA@16
 .idata$5       0x00455964        0x4 /usr/lib/w32api/libuser32.a(dwxfs00295.o)
                0x00455964                __imp__GetMessageTime@0
 .idata$5       0x00455968        0x4 /usr/lib/w32api/libuser32.a(dwxfs00303.o)
                0x00455968                __imp__GetParent@4
 .idata$5       0x0045596c        0x4 /usr/lib/w32api/libuser32.a(dwxfs00322.o)
                0x0045596c                __imp__GetSysColor@4
 .idata$5       0x00455970        0x4 /usr/lib/w32api/libuser32.a(dwxfs00324.o)
                0x00455970                __imp__GetSystemMenu@8
 .idata$5       0x00455974        0x4 /usr/lib/w32api/libuser32.a(dwxfs00340.o)
                0x00455974                __imp__GetWindowLongA@8
 .idata$5       0x00455978        0x4 /usr/lib/w32api/libuser32.a(dwxfs00345.o)
                0x00455978                __imp__GetWindowPlacement@8
 .idata$5       0x0045597c        0x4 /usr/lib/w32api/libuser32.a(dwxfs00346.o)
                0x0045597c                __imp__GetWindowRect@8
 .idata$5       0x00455980        0x4 /usr/lib/w32api/libuser32.a(dwxfs00348.o)
                0x00455980                __imp__GetWindowTextA@12
 .idata$5       0x00455984        0x4 /usr/lib/w32api/libuser32.a(dwxfs00349.o)
                0x00455984                __imp__GetWindowTextLengthA@4
 .idata$5       0x00455988        0x4 /usr/lib/w32api/libuser32.a(dwxfs00356.o)
                0x00455988                __imp__HideCaret@4
 .idata$5       0x0045598c        0x4 /usr/lib/w32api/libuser32.a(dwxfs00362.o)
                0x0045598c                __imp__InsertMenuA@20
 .idata$5       0x00455990        0x4 /usr/lib/w32api/libuser32.a(dwxfs00368.o)
                0x00455990                __imp__InvalidateRect@12
 .idata$5       0x00455994        0x4 /usr/lib/w32api/libuser32.a(dwxfs00382.o)
                0x00455994                __imp__IsDialogMessageA@8
 .idata$5       0x00455998        0x4 /usr/lib/w32api/libuser32.a(dwxfs00384.o)
                0x00455998                __imp__IsDlgButtonChecked@8
 .idata$5       0x0045599c        0x4 /usr/lib/w32api/libuser32.a(dwxfs00387.o)
                0x0045599c                __imp__IsIconic@4
 .idata$5       0x004559a0        0x4 /usr/lib/w32api/libuser32.a(dwxfs00391.o)
                0x004559a0                __imp__IsWindow@4
 .idata$5       0x004559a4        0x4 /usr/lib/w32api/libuser32.a(dwxfs00395.o)
                0x004559a4                __imp__IsZoomed@4
 .idata$5       0x004559a8        0x4 /usr/lib/w32api/libuser32.a(dwxfs00397.o)
                0x004559a8                __imp__KillTimer@8
 .idata$5       0x004559ac        0x4 /usr/lib/w32api/libuser32.a(dwxfs00402.o)
                0x004559ac                __imp__LoadCursorA@8
 .idata$5       0x004559b0        0x4 /usr/lib/w32api/libuser32.a(dwxfs00406.o)
                0x004559b0                __imp__LoadIconA@8
 .idata$5       0x004559b4        0x4 /usr/lib/w32api/libuser32.a(dwxfs00423.o)
                0x004559b4                __imp__MapDialogRect@8
 .idata$5       0x004559b8        0x4 /usr/lib/w32api/libuser32.a(dwxfs00430.o)
                0x004559b8                __imp__MessageBeep@4
 .idata$5       0x004559bc        0x4 /usr/lib/w32api/libuser32.a(dwxfs00431.o)
                0x004559bc                __imp__MessageBoxA@16
 .idata$5       0x004559c0        0x4 /usr/lib/w32api/libuser32.a(dwxfs00434.o)
                0x004559c0                __imp__MessageBoxIndirectA@4
 .idata$5       0x004559c4        0x4 /usr/lib/w32api/libuser32.a(dwxfs00442.o)
                0x004559c4                __imp__MoveWindow@24
 .idata$5       0x004559c8        0x4 /usr/lib/w32api/libuser32.a(dwxfs00443.o)
                0x004559c8                __imp__MsgWaitForMultipleObjects@20
 .idata$5       0x004559cc        0x4 /usr/lib/w32api/libuser32.a(dwxfs00452.o)
                0x004559cc                __imp__OpenClipboard@4
 .idata$5       0x004559d0        0x4 /usr/lib/w32api/libuser32.a(dwxfs00461.o)
                0x004559d0                __imp__PeekMessageA@20
 .idata$5       0x004559d4        0x4 /usr/lib/w32api/libuser32.a(dwxfs00463.o)
                0x004559d4                __imp__PostMessageA@16
 .idata$5       0x004559d8        0x4 /usr/lib/w32api/libuser32.a(dwxfs00465.o)
                0x004559d8                __imp__PostQuitMessage@4
 .idata$5       0x004559dc        0x4 /usr/lib/w32api/libuser32.a(dwxfs00476.o)
                0x004559dc                __imp__RegisterClassA@4
 .idata$5       0x004559e0        0x4 /usr/lib/w32api/libuser32.a(dwxfs00480.o)
                0x004559e0                __imp__RegisterClipboardFormatA@4
 .idata$5       0x004559e4        0x4 /usr/lib/w32api/libuser32.a(dwxfs00487.o)
                0x004559e4                __imp__RegisterWindowMessageA@4
 .idata$5       0x004559e8        0x4 /usr/lib/w32api/libuser32.a(dwxfs00489.o)
                0x004559e8                __imp__ReleaseCapture@0
 .idata$5       0x004559ec        0x4 /usr/lib/w32api/libuser32.a(dwxfs00490.o)
                0x004559ec                __imp__ReleaseDC@8
 .idata$5       0x004559f0        0x4 /usr/lib/w32api/libuser32.a(dwxfs00501.o)
                0x004559f0                __imp__SendDlgItemMessageA@20
 .idata$5       0x004559f4        0x4 /usr/lib/w32api/libuser32.a(dwxfs00504.o)
                0x004559f4                __imp__SendMessageA@16
 .idata$5       0x004559f8        0x4 /usr/lib/w32api/libuser32.a(dwxfs00512.o)
                0x004559f8                __imp__SetActiveWindow@4
 .idata$5       0x004559fc        0x4 /usr/lib/w32api/libuser32.a(dwxfs00513.o)
                0x004559fc                __imp__SetCapture@4
 .idata$5       0x00455a00        0x4 /usr/lib/w32api/libuser32.a(dwxfs00515.o)
                0x00455a00                __imp__SetCaretPos@8
 .idata$5       0x00455a04        0x4 /usr/lib/w32api/libuser32.a(dwxfs00516.o)
                0x00455a04                __imp__SetClassLongA@12
 .idata$5       0x00455a08        0x4 /usr/lib/w32api/libuser32.a(dwxfs00519.o)
                0x00455a08                __imp__SetClipboardData@8
 .idata$5       0x00455a0c        0x4 /usr/lib/w32api/libuser32.a(dwxfs00521.o)
                0x00455a0c                __imp__SetCursor@4
 .idata$5       0x00455a10        0x4 /usr/lib/w32api/libuser32.a(dwxfs00526.o)
                0x00455a10                __imp__SetDlgItemTextA@12
 .idata$5       0x00455a14        0x4 /usr/lib/w32api/libuser32.a(dwxfs00529.o)
                0x00455a14                __imp__SetFocus@4
 .idata$5       0x00455a18        0x4 /usr/lib/w32api/libuser32.a(dwxfs00530.o)
                0x00455a18                __imp__SetForegroundWindow@4
 .idata$5       0x00455a1c        0x4 /usr/lib/w32api/libuser32.a(dwxfs00531.o)
                0x00455a1c                __imp__SetKeyboardState@4
 .idata$5       0x00455a20        0x4 /usr/lib/w32api/libuser32.a(dwxfs00550.o)
                0x00455a20                __imp__SetScrollInfo@16
 .idata$5       0x00455a24        0x4 /usr/lib/w32api/libuser32.a(dwxfs00559.o)
                0x00455a24                __imp__SetTimer@16
 .idata$5       0x00455a28        0x4 /usr/lib/w32api/libuser32.a(dwxfs00565.o)
                0x00455a28                __imp__SetWindowLongA@12
 .idata$5       0x00455a2c        0x4 /usr/lib/w32api/libuser32.a(dwxfs00567.o)
                0x00455a2c                __imp__SetWindowPlacement@8
 .idata$5       0x00455a30        0x4 /usr/lib/w32api/libuser32.a(dwxfs00568.o)
                0x00455a30                __imp__SetWindowPos@28
 .idata$5       0x00455a34        0x4 /usr/lib/w32api/libuser32.a(dwxfs00570.o)
                0x00455a34                __imp__SetWindowTextA@8
 .idata$5       0x00455a38        0x4 /usr/lib/w32api/libuser32.a(dwxfs00577.o)
                0x00455a38                __imp__ShowCaret@4
 .idata$5       0x00455a3c        0x4 /usr/lib/w32api/libuser32.a(dwxfs00578.o)
                0x00455a3c                __imp__ShowCursor@4
 .idata$5       0x00455a40        0x4 /usr/lib/w32api/libuser32.a(dwxfs00581.o)
                0x00455a40                __imp__ShowWindow@8
 .idata$5       0x00455a44        0x4 /usr/lib/w32api/libuser32.a(dwxfs00587.o)
                0x00455a44                __imp__SystemParametersInfoA@16
 .idata$5       0x00455a48        0x4 /usr/lib/w32api/libuser32.a(dwxfs00594.o)
                0x00455a48                __imp__ToAsciiEx@24
 .idata$5       0x00455a4c        0x4 /usr/lib/w32api/libuser32.a(dwxfs00598.o)
                0x00455a4c                __imp__TrackPopupMenu@28
 .idata$5       0x00455a50        0x4 /usr/lib/w32api/libuser32.a(dwxfs00604.o)
                0x00455a50                __imp__TranslateMessage@4
 .idata$5       0x00455a54        0x4 /usr/lib/w32api/libuser32.a(dwxfs00617.o)
                0x00455a54                __imp__UpdateWindow@4
 .idata$5       0x00455a58        0x4 /usr/lib/w32api/libuser32.a(dwxfs00627.o)
                0x00455a58                __imp__WinHelpA@16
 .idata$5       0x00455a5c        0x4 /usr/lib/w32api/libuser32.a(dwxft.o)
 .idata$5       0x00455a60        0x4 /usr/lib/w32api/libwinmm.a(dumfh.o)
 .idata$5       0x00455a64        0x4 /usr/lib/w32api/libwinmm.a(dumfs00008.o)
                0x00455a64                __imp__PlaySoundA@12
 .idata$5       0x00455a68        0x4 /usr/lib/w32api/libwinmm.a(dumft.o)
 .idata$5       0x00455a6c        0x4 /usr/lib/w32api/libwinspool.a(dwbdh.o)
 .idata$5       0x00455a70        0x4 /usr/lib/w32api/libwinspool.a(dwbds00025.o)
                0x00455a70                __imp__ClosePrinter@4
 .idata$5       0x00455a74        0x4 /usr/lib/w32api/libwinspool.a(dwbds00059.o)
                0x00455a74                __imp__EndDocPrinter@4
 .idata$5       0x00455a78        0x4 /usr/lib/w32api/libwinspool.a(dwbds00060.o)
                0x00455a78                __imp__EndPagePrinter@4
 .idata$5       0x00455a7c        0x4 /usr/lib/w32api/libwinspool.a(dwbds00078.o)
                0x00455a7c                __imp__EnumPrintersA@28
 .idata$5       0x00455a80        0x4 /usr/lib/w32api/libwinspool.a(dwbds00102.o)
                0x00455a80                __imp__OpenPrinterA@12
 .idata$5       0x00455a84        0x4 /usr/lib/w32api/libwinspool.a(dwbds00126.o)
                0x00455a84                __imp__StartDocPrinterA@12
 .idata$5       0x00455a88        0x4 /usr/lib/w32api/libwinspool.a(dwbds00128.o)
                0x00455a88                __imp__StartPagePrinter@4
 .idata$5       0x00455a8c        0x4 /usr/lib/w32api/libwinspool.a(dwbds00130.o)
                0x00455a8c                __imp__WritePrinter@16
 .idata$5       0x00455a90        0x4 /usr/lib/w32api/libwinspool.a(dwbdt.o)
 SORT(*)(.idata$6)
 .idata$6       0x00455a94        0xc /usr/lib/gcc/i686-pc-mingw32/3.4.4/../../../../i686-pc-mingw32/lib/libmoldname.a(dctgs00084.o)
 .idata$6       0x00455aa0       0x10 /usr/lib/gcc/i686-pc-mingw32/3.4.4/../../../../i686-pc-mingw32/lib/libmsvcrt.a(doxfs00055.o)
 .idata$6       0x00455ab0       0x10 /usr/lib/gcc/i686-pc-mingw32/3.4.4/../../../../i686-pc-mingw32/lib/libmsvcrt.a(doxfs00065.o)
 .idata$6       0x00455ac0       0x10 /usr/lib/gcc/i686-pc-mingw32/3.4.4/../../../../i686-pc-mingw32/lib/libmsvcrt.a(doxfs00077.o)
 .idata$6       0x00455ad0        0xe /usr/lib/gcc/i686-pc-mingw32/3.4.4/../../../../i686-pc-mingw32/lib/libmsvcrt.a(doxfs00079.o)
 .idata$6       0x00455ade       0x12 /usr/lib/gcc/i686-pc-mingw32/3.4.4/../../../../i686-pc-mingw32/lib/libmsvcrt.a(doxfs00099.o)
 .idata$6       0x00455af0        0xa /usr/lib/gcc/i686-pc-mingw32/3.4.4/../../../../i686-pc-mingw32/lib/libmsvcrt.a(doxfs00137.o)
 .idata$6       0x00455afa        0xa /usr/lib/gcc/i686-pc-mingw32/3.4.4/../../../../i686-pc-mingw32/lib/libmsvcrt.a(doxfs00147.o)
 .idata$6       0x00455b04        0x8 /usr/lib/gcc/i686-pc-mingw32/3.4.4/../../../../i686-pc-mingw32/lib/libmsvcrt.a(doxfs00266.o)
 .idata$6       0x00455b0c        0xc /usr/lib/gcc/i686-pc-mingw32/3.4.4/../../../../i686-pc-mingw32/lib/libmsvcrt.a(doxfs00268.o)
 .idata$6       0x00455b18        0xa /usr/lib/gcc/i686-pc-mingw32/3.4.4/../../../../i686-pc-mingw32/lib/libmsvcrt.a(doxfs00383.o)
 .idata$6       0x00455b22        0xa /usr/lib/gcc/i686-pc-mingw32/3.4.4/../../../../i686-pc-mingw32/lib/libmsvcrt.a(doxfs00392.o)
 .idata$6       0x00455b2c        0xc /usr/lib/gcc/i686-pc-mingw32/3.4.4/../../../../i686-pc-mingw32/lib/libmsvcrt.a(doxfs00426.o)
 .idata$6       0x00455b38        0xe /usr/lib/gcc/i686-pc-mingw32/3.4.4/../../../../i686-pc-mingw32/lib/libmsvcrt.a(doxfs00490.o)
 .idata$6       0x00455b46        0xa /usr/lib/gcc/i686-pc-mingw32/3.4.4/../../../../i686-pc-mingw32/lib/libmsvcrt.a(doxfs00590.o)
 .idata$6       0x00455b50        0x8 /usr/lib/gcc/i686-pc-mingw32/3.4.4/../../../../i686-pc-mingw32/lib/libmsvcrt.a(doxfs00591.o)
 .idata$6       0x00455b58        0x8 /usr/lib/gcc/i686-pc-mingw32/3.4.4/../../../../i686-pc-mingw32/lib/libmsvcrt.a(doxfs00592.o)
 .idata$6       0x00455b60        0x8 /usr/lib/gcc/i686-pc-mingw32/3.4.4/../../../../i686-pc-mingw32/lib/libmsvcrt.a(doxfs00604.o)
 .idata$6       0x00455b68        0xa /usr/lib/gcc/i686-pc-mingw32/3.4.4/../../../../i686-pc-mingw32/lib/libmsvcrt.a(doxfs00607.o)
 .idata$6       0x00455b72        0xa /usr/lib/gcc/i686-pc-mingw32/3.4.4/../../../../i686-pc-mingw32/lib/libmsvcrt.a(doxfs00610.o)
 .idata$6       0x00455b7c        0x8 /usr/lib/gcc/i686-pc-mingw32/3.4.4/../../../../i686-pc-mingw32/lib/libmsvcrt.a(doxfs00611.o)
 .idata$6       0x00455b84        0x8 /usr/lib/gcc/i686-pc-mingw32/3.4.4/../../../../i686-pc-mingw32/lib/libmsvcrt.a(doxfs00613.o)
 .idata$6       0x00455b8c        0x8 /usr/lib/gcc/i686-pc-mingw32/3.4.4/../../../../i686-pc-mingw32/lib/libmsvcrt.a(doxfs00618.o)
 .idata$6       0x00455b94        0xa /usr/lib/gcc/i686-pc-mingw32/3.4.4/../../../../i686-pc-mingw32/lib/libmsvcrt.a(doxfs00619.o)
 .idata$6       0x00455b9e        0x8 /usr/lib/gcc/i686-pc-mingw32/3.4.4/../../../../i686-pc-mingw32/lib/libmsvcrt.a(doxfs00621.o)
 .idata$6       0x00455ba6        0x8 /usr/lib/gcc/i686-pc-mingw32/3.4.4/../../../../i686-pc-mingw32/lib/libmsvcrt.a(doxfs00625.o)
 .idata$6       0x00455bae        0xa /usr/lib/gcc/i686-pc-mingw32/3.4.4/../../../../i686-pc-mingw32/lib/libmsvcrt.a(doxfs00633.o)
 .idata$6       0x00455bb8        0xa /usr/lib/gcc/i686-pc-mingw32/3.4.4/../../../../i686-pc-mingw32/lib/libmsvcrt.a(doxfs00637.o)
 .idata$6       0x00455bc2        0xa /usr/lib/gcc/i686-pc-mingw32/3.4.4/../../../../i686-pc-mingw32/lib/libmsvcrt.a(doxfs00676.o)
 .idata$6       0x00455bcc        0xa /usr/lib/gcc/i686-pc-mingw32/3.4.4/../../../../i686-pc-mingw32/lib/libmsvcrt.a(doxfs00682.o)
 .idata$6       0x00455bd6        0xa /usr/lib/gcc/i686-pc-mingw32/3.4.4/../../../../i686-pc-mingw32/lib/libmsvcrt.a(doxfs00683.o)
 .idata$6       0x00455be0        0xa /usr/lib/gcc/i686-pc-mingw32/3.4.4/../../../../i686-pc-mingw32/lib/libmsvcrt.a(doxfs00684.o)
 .idata$6       0x00455bea        0x8 /usr/lib/gcc/i686-pc-mingw32/3.4.4/../../../../i686-pc-mingw32/lib/libmsvcrt.a(doxfs00695.o)
 .idata$6       0x00455bf2        0xa /usr/lib/gcc/i686-pc-mingw32/3.4.4/../../../../i686-pc-mingw32/lib/libmsvcrt.a(doxfs00698.o)
 .idata$6       0x00455bfc        0xa /usr/lib/gcc/i686-pc-mingw32/3.4.4/../../../../i686-pc-mingw32/lib/libmsvcrt.a(doxfs00699.o)
 .idata$6       0x00455c06        0xa /usr/lib/gcc/i686-pc-mingw32/3.4.4/../../../../i686-pc-mingw32/lib/libmsvcrt.a(doxfs00706.o)
 .idata$6       0x00455c10        0xa /usr/lib/gcc/i686-pc-mingw32/3.4.4/../../../../i686-pc-mingw32/lib/libmsvcrt.a(doxfs00709.o)
 .idata$6       0x00455c1a        0xa /usr/lib/gcc/i686-pc-mingw32/3.4.4/../../../../i686-pc-mingw32/lib/libmsvcrt.a(doxfs00712.o)
 .idata$6       0x00455c24        0xa /usr/lib/gcc/i686-pc-mingw32/3.4.4/../../../../i686-pc-mingw32/lib/libmsvcrt.a(doxfs00713.o)
 .idata$6       0x00455c2e        0xa /usr/lib/gcc/i686-pc-mingw32/3.4.4/../../../../i686-pc-mingw32/lib/libmsvcrt.a(doxfs00714.o)
 .idata$6       0x00455c38        0xa /usr/lib/gcc/i686-pc-mingw32/3.4.4/../../../../i686-pc-mingw32/lib/libmsvcrt.a(doxfs00715.o)
 .idata$6       0x00455c42        0xa /usr/lib/gcc/i686-pc-mingw32/3.4.4/../../../../i686-pc-mingw32/lib/libmsvcrt.a(doxfs00717.o)
 .idata$6       0x00455c4c        0xa /usr/lib/gcc/i686-pc-mingw32/3.4.4/../../../../i686-pc-mingw32/lib/libmsvcrt.a(doxfs00718.o)
 .idata$6       0x00455c56        0xc /usr/lib/gcc/i686-pc-mingw32/3.4.4/../../../../i686-pc-mingw32/lib/libmsvcrt.a(doxfs00720.o)
 .idata$6       0x00455c62        0xa /usr/lib/gcc/i686-pc-mingw32/3.4.4/../../../../i686-pc-mingw32/lib/libmsvcrt.a(doxfs00721.o)
 .idata$6       0x00455c6c        0xa /usr/lib/gcc/i686-pc-mingw32/3.4.4/../../../../i686-pc-mingw32/lib/libmsvcrt.a(doxfs00722.o)
 .idata$6       0x00455c76        0xa /usr/lib/gcc/i686-pc-mingw32/3.4.4/../../../../i686-pc-mingw32/lib/libmsvcrt.a(doxfs00723.o)
 .idata$6       0x00455c80        0xa /usr/lib/gcc/i686-pc-mingw32/3.4.4/../../../../i686-pc-mingw32/lib/libmsvcrt.a(doxfs00724.o)
 .idata$6       0x00455c8a        0xa /usr/lib/gcc/i686-pc-mingw32/3.4.4/../../../../i686-pc-mingw32/lib/libmsvcrt.a(doxfs00726.o)
 .idata$6       0x00455c94        0xa /usr/lib/gcc/i686-pc-mingw32/3.4.4/../../../../i686-pc-mingw32/lib/libmsvcrt.a(doxfs00730.o)
 .idata$6       0x00455c9e        0xa /usr/lib/gcc/i686-pc-mingw32/3.4.4/../../../../i686-pc-mingw32/lib/libmsvcrt.a(doxfs00731.o)
 .idata$6       0x00455ca8        0xa /usr/lib/gcc/i686-pc-mingw32/3.4.4/../../../../i686-pc-mingw32/lib/libmsvcrt.a(doxfs00732.o)
 .idata$6       0x00455cb2        0xa /usr/lib/gcc/i686-pc-mingw32/3.4.4/../../../../i686-pc-mingw32/lib/libmsvcrt.a(doxfs00742.o)
 .idata$6       0x00455cbc        0xa /usr/lib/gcc/i686-pc-mingw32/3.4.4/../../../../i686-pc-mingw32/lib/libmsvcrt.a(doxfs00743.o)
 .idata$6       0x00455cc6       0x10 /usr/lib/w32api/libadvapi32.a(dykgs00245.o)
 .idata$6       0x00455cd6        0xe /usr/lib/w32api/libadvapi32.a(dykgs00386.o)
 .idata$6       0x00455ce4       0x10 /usr/lib/w32api/libadvapi32.a(dykgs00389.o)
 .idata$6       0x00455cf4       0x10 /usr/lib/w32api/libadvapi32.a(dykgs00393.o)
 .idata$6       0x00455d04        0xe /usr/lib/w32api/libadvapi32.a(dykgs00400.o)
 .idata$6       0x00455d12        0xe /usr/lib/w32api/libadvapi32.a(dykgs00412.o)
 .idata$6       0x00455d20       0x14 /usr/lib/w32api/libadvapi32.a(dykgs00423.o)
 .idata$6       0x00455d34       0x12 /usr/lib/w32api/libadvapi32.a(dykgs00434.o)
 .idata$6       0x00455d46        0xe /usr/lib/w32api/libcomctl32.a(dkzhs00041.o)
 .idata$6       0x00455d54       0x16 /usr/lib/w32api/libcomctl32.a(dkzhs00091.o)
 .idata$6       0x00455d6a       0x10 /usr/lib/w32api/libcomctl32.a(dkzhs00093.o)
 .idata$6       0x00455d7a       0x10 /usr/lib/w32api/libcomctl32.a(dkzhs00094.o)
 .idata$6       0x00455d8a       0x10 /usr/lib/w32api/libcomdlg32.a(dmycs00000.o)
 .idata$6       0x00455d9a        0xe /usr/lib/w32api/libcomdlg32.a(dmycs00002.o)
 .idata$6       0x00455da8       0x14 /usr/lib/w32api/libcomdlg32.a(dmycs00009.o)
 .idata$6       0x00455dbc       0x14 /usr/lib/w32api/libcomdlg32.a(dmycs00011.o)
 .idata$6       0x00455dd0       0x10 /usr/lib/w32api/libgdi32.a(dyohs00028.o)
 .idata$6       0x00455de0       0x1a /usr/lib/w32api/libgdi32.a(dyohs00033.o)
 .idata$6       0x00455dfa       0x16 /usr/lib/w32api/libgdi32.a(dyohs00034.o)
 .idata$6       0x00455e10        0xe /usr/lib/w32api/libgdi32.a(dyohs00046.o)
 .idata$6       0x00455e1e       0x16 /usr/lib/w32api/libgdi32.a(dyohs00047.o)
 .idata$6       0x00455e34       0x10 /usr/lib/w32api/libgdi32.a(dyohs00056.o)
 .idata$6       0x00455e44        0xc /usr/lib/w32api/libgdi32.a(dyohs00058.o)
 .idata$6       0x00455e50       0x14 /usr/lib/w32api/libgdi32.a(dyohs00067.o)
 .idata$6       0x00455e64        0xc /usr/lib/w32api/libgdi32.a(dyohs00070.o)
 .idata$6       0x00455e70       0x10 /usr/lib/w32api/libgdi32.a(dyohs00073.o)
 .idata$6       0x00455e80       0x12 /usr/lib/w32api/libgdi32.a(dyohs00096.o)
 .idata$6       0x00455e92        0xe /usr/lib/w32api/libgdi32.a(dyohs00102.o)
 .idata$6       0x00455ea0        0xe /usr/lib/w32api/libgdi32.a(dyohs00103.o)
 .idata$6       0x00455eae       0x12 /usr/lib/w32api/libgdi32.a(dyohs00129.o)
 .idata$6       0x00455ec0       0x12 /usr/lib/w32api/libgdi32.a(dyohs00130.o)
 .idata$6       0x00455ed2       0x10 /usr/lib/w32api/libgdi32.a(dyohs00131.o)
 .idata$6       0x00455ee2       0x10 /usr/lib/w32api/libgdi32.a(dyohs00134.o)
 .idata$6       0x00455ef2       0x1a /usr/lib/w32api/libgdi32.a(dyohs00136.o)
 .idata$6       0x00455f0c       0x10 /usr/lib/w32api/libgdi32.a(dyohs00146.o)
 .idata$6       0x00455f1c        0xe /usr/lib/w32api/libgdi32.a(dyohs00183.o)
 .idata$6       0x00455f2a        0xc /usr/lib/w32api/libgdi32.a(dyohs00190.o)
 .idata$6       0x00455f36       0x12 /usr/lib/w32api/libgdi32.a(dyohs00199.o)
 .idata$6       0x00455f48       0x18 /usr/lib/w32api/libgdi32.a(dyohs00208.o)
 .idata$6       0x00455f60       0x18 /usr/lib/w32api/libgdi32.a(dyohs00211.o)
 .idata$6       0x00455f78       0x12 /usr/lib/w32api/libgdi32.a(dyohs00217.o)
 .idata$6       0x00455f8a       0x14 /usr/lib/w32api/libgdi32.a(dyohs00225.o)
 .idata$6       0x00455f9e        0xa /usr/lib/w32api/libgdi32.a(dyohs00229.o)
 .idata$6       0x00455fa8        0xc /usr/lib/w32api/libgdi32.a(dyohs00232.o)
 .idata$6       0x00455fb4        0xc /usr/lib/w32api/libgdi32.a(dyohs00254.o)
 .idata$6       0x00455fc0       0x12 /usr/lib/w32api/libgdi32.a(dyohs00258.o)
 .idata$6       0x00455fd2        0xc /usr/lib/w32api/libgdi32.a(dyohs00261.o)
 .idata$6       0x00455fde       0x10 /usr/lib/w32api/libgdi32.a(dyohs00279.o)
 .idata$6       0x00455fee       0x10 /usr/lib/w32api/libgdi32.a(dyohs00280.o)
 .idata$6       0x00455ffe        0xe /usr/lib/w32api/libgdi32.a(dyohs00285.o)
 .idata$6       0x0045600c        0xc /usr/lib/w32api/libgdi32.a(dyohs00286.o)
 .idata$6       0x00456018        0xe /usr/lib/w32api/libgdi32.a(dyohs00304.o)
 .idata$6       0x00456026       0x14 /usr/lib/w32api/libgdi32.a(dyohs00309.o)
 .idata$6       0x0045603a        0xc /usr/lib/w32api/libgdi32.a(dyohs00310.o)
 .idata$6       0x00456046       0x10 /usr/lib/w32api/libgdi32.a(dyohs00319.o)
 .idata$6       0x00456056       0x10 /usr/lib/w32api/libgdi32.a(dyohs00321.o)
 .idata$6       0x00456066        0xc /usr/lib/w32api/libgdi32.a(dyohs00337.o)
 .idata$6       0x00456072       0x18 /usr/lib/w32api/libgdi32.a(dyohs00339.o)
 .idata$6       0x0045608a       0x12 /usr/lib/w32api/libgdi32.a(dyohs00340.o)
 .idata$6       0x0045609c       0x10 /usr/lib/w32api/libgdi32.a(dyohs00341.o)
 .idata$6       0x004560ac       0x1c /usr/lib/w32api/libimm32.a(dasfs00023.o)
 .idata$6       0x004560c8       0x10 /usr/lib/w32api/libimm32.a(dasfs00025.o)
 .idata$6       0x004560d8       0x14 /usr/lib/w32api/libimm32.a(dasfs00059.o)
 .idata$6       0x004560ec       0x1a /usr/lib/w32api/libimm32.a(dasfs00061.o)
 .idata$6       0x00456106       0x1a /usr/lib/w32api/libimm32.a(dasfs00065.o)
 .idata$6       0x00456120       0x10 /usr/lib/w32api/libkernel32.a(dyuhs00009.o)
 .idata$6       0x00456130        0x8 /usr/lib/w32api/libkernel32.a(dyuhs00018.o)
 .idata$6       0x00456138       0x12 /usr/lib/w32api/libkernel32.a(dyuhs00035.o)
 .idata$6       0x0045614a        0xe /usr/lib/w32api/libkernel32.a(dyuhs00038.o)
 .idata$6       0x00456158       0x10 /usr/lib/w32api/libkernel32.a(dyuhs00064.o)
 .idata$6       0x00456168        0xe /usr/lib/w32api/libkernel32.a(dyuhs00068.o)
 .idata$6       0x00456176       0x16 /usr/lib/w32api/libkernel32.a(dyuhs00069.o)
 .idata$6       0x0045618c        0xe /usr/lib/w32api/libkernel32.a(dyuhs00084.o)
 .idata$6       0x0045619a       0x12 /usr/lib/w32api/libkernel32.a(dyuhs00085.o)
 .idata$6       0x004561ac       0x10 /usr/lib/w32api/libkernel32.a(dyuhs00091.o)
 .idata$6       0x004561bc        0xe /usr/lib/w32api/libkernel32.a(dyuhs00156.o)
 .idata$6       0x004561ca        0xe /usr/lib/w32api/libkernel32.a(dyuhs00214.o)
 .idata$6       0x004561d8        0xa /usr/lib/w32api/libkernel32.a(dyuhs00220.o)
 .idata$6       0x004561e2        0xc /usr/lib/w32api/libkernel32.a(dyuhs00226.o)
 .idata$6       0x004561ee       0x10 /usr/lib/w32api/libkernel32.a(dyuhs00235.o)
 .idata$6       0x004561fe       0x12 /usr/lib/w32api/libkernel32.a(dyuhs00237.o)
 .idata$6       0x00456210       0x18 /usr/lib/w32api/libkernel32.a(dyuhs00281.o)
 .idata$6       0x00456228       0x1a /usr/lib/w32api/libkernel32.a(dyuhs00303.o)
 .idata$6       0x00456242       0x10 /usr/lib/w32api/libkernel32.a(dyuhs00325.o)
 .idata$6       0x00456252       0x10 /usr/lib/w32api/libkernel32.a(dyuhs00326.o)
 .idata$6       0x00456262       0x12 /usr/lib/w32api/libkernel32.a(dyuhs00327.o)
 .idata$6       0x00456274       0x16 /usr/lib/w32api/libkernel32.a(dyuhs00335.o)
 .idata$6       0x0045628a       0x14 /usr/lib/w32api/libkernel32.a(dyuhs00337.o)
 .idata$6       0x0045629e        0xc /usr/lib/w32api/libkernel32.a(dyuhs00351.o)
 .idata$6       0x004562aa       0x16 /usr/lib/w32api/libkernel32.a(dyuhs00352.o)
 .idata$6       0x004562c0       0x12 /usr/lib/w32api/libkernel32.a(dyuhs00364.o)
 .idata$6       0x004562d2       0x12 /usr/lib/w32api/libkernel32.a(dyuhs00386.o)
 .idata$6       0x004562e4       0x10 /usr/lib/w32api/libkernel32.a(dyuhs00388.o)
 .idata$6       0x004562f4       0x10 /usr/lib/w32api/libkernel32.a(dyuhs00423.o)
 .idata$6       0x00456304       0x10 /usr/lib/w32api/libkernel32.a(dyuhs00433.o)
 .idata$6       0x00456314       0x18 /usr/lib/w32api/libkernel32.a(dyuhs00443.o)
 .idata$6       0x0045632c        0xe /usr/lib/w32api/libkernel32.a(dyuhs00448.o)
 .idata$6       0x0045633a        0xe /usr/lib/w32api/libkernel32.a(dyuhs00455.o)
 .idata$6       0x00456348        0xe /usr/lib/w32api/libkernel32.a(dyuhs00459.o)
 .idata$6       0x00456356       0x10 /usr/lib/w32api/libkernel32.a(dyuhs00467.o)
 .idata$6       0x00456366       0x14 /usr/lib/w32api/libkernel32.a(dyuhs00512.o)
 .idata$6       0x0045637a       0x10 /usr/lib/w32api/libkernel32.a(dyuhs00524.o)
 .idata$6       0x0045638a       0x10 /usr/lib/w32api/libkernel32.a(dyuhs00546.o)
 .idata$6       0x0045639a        0xa /usr/lib/w32api/libkernel32.a(dyuhs00559.o)
 .idata$6       0x004563a4       0x16 /usr/lib/w32api/libkernel32.a(dyuhs00560.o)
 .idata$6       0x004563ba        0xc /usr/lib/w32api/libkernel32.a(dyuhs00616.o)
 .idata$6       0x004563c6       0x10 /usr/lib/w32api/libkernel32.a(dyuhs00652.o)
 .idata$6       0x004563d6       0x10 /usr/lib/w32api/libkernel32.a(dyuhs00655.o)
 .idata$6       0x004563e6       0x12 /usr/lib/w32api/libkernel32.a(dyuhs00656.o)
 .idata$6       0x004563f8       0x18 /usr/lib/w32api/libkernel32.a(dyuhs00688.o)
 .idata$6       0x00456410        0xc /usr/lib/w32api/libkernel32.a(dyuhs00698.o)
 .idata$6       0x0045641c       0x18 /usr/lib/w32api/libkernel32.a(dyuhs00710.o)
 .idata$6       0x00456434       0x1e /usr/lib/w32api/libkernel32.a(dyuhs00739.o)
 .idata$6       0x00456452       0x12 /usr/lib/w32api/libkernel32.a(dyuhs00776.o)
 .idata$6       0x00456464       0x16 /usr/lib/w32api/libkernel32.a(dyuhs00810.o)
 .idata$6       0x0045647a       0x16 /usr/lib/w32api/libkernel32.a(dyuhs00814.o)
 .idata$6       0x00456490        0xc /usr/lib/w32api/libkernel32.a(dyuhs00827.o)
 .idata$6       0x0045649c       0x10 /usr/lib/w32api/libshell32.a(dsdfs00143.o)
 .idata$6       0x004564ac        0xe /usr/lib/w32api/libuser32.a(dwxfs00006.o)
 .idata$6       0x004564ba        0xe /usr/lib/w32api/libuser32.a(dwxfs00011.o)
 .idata$6       0x004564c8       0x12 /usr/lib/w32api/libuser32.a(dwxfs00053.o)
 .idata$6       0x004564da       0x10 /usr/lib/w32api/libuser32.a(dwxfs00054.o)
 .idata$6       0x004564ea       0x14 /usr/lib/w32api/libuser32.a(dwxfs00056.o)
 .idata$6       0x004564fe       0x12 /usr/lib/w32api/libuser32.a(dwxfs00061.o)
 .idata$6       0x00456510        0xe /usr/lib/w32api/libuser32.a(dwxfs00073.o)
 .idata$6       0x0045651e       0x16 /usr/lib/w32api/libuser32.a(dwxfs00079.o)
 .idata$6       0x00456534        0xe /usr/lib/w32api/libuser32.a(dwxfs00087.o)
 .idata$6       0x00456542       0x12 /usr/lib/w32api/libuser32.a(dwxfs00088.o)
 .idata$6       0x00456554       0x12 /usr/lib/w32api/libuser32.a(dwxfs00089.o)
 .idata$6       0x00456566        0xe /usr/lib/w32api/libuser32.a(dwxfs00126.o)
 .idata$6       0x00456574       0x12 /usr/lib/w32api/libuser32.a(dwxfs00133.o)
 .idata$6       0x00456586        0xe /usr/lib/w32api/libuser32.a(dwxfs00136.o)
 .idata$6       0x00456594       0x10 /usr/lib/w32api/libuser32.a(dwxfs00139.o)
 .idata$6       0x004565a4       0x10 /usr/lib/w32api/libuser32.a(dwxfs00143.o)
 .idata$6       0x004565b4       0x12 /usr/lib/w32api/libuser32.a(dwxfs00146.o)
 .idata$6       0x004565c6       0x14 /usr/lib/w32api/libuser32.a(dwxfs00148.o)
 .idata$6       0x004565da        0xc /usr/lib/w32api/libuser32.a(dwxfs00162.o)
 .idata$6       0x004565e6       0x12 /usr/lib/w32api/libuser32.a(dwxfs00176.o)
 .idata$6       0x004565f8       0x12 /usr/lib/w32api/libuser32.a(dwxfs00177.o)
 .idata$6       0x0045660a       0x10 /usr/lib/w32api/libuser32.a(dwxfs00179.o)
 .idata$6       0x0045661a        0xc /usr/lib/w32api/libuser32.a(dwxfs00181.o)
 .idata$6       0x00456626        0xc /usr/lib/w32api/libuser32.a(dwxfs00183.o)
 .idata$6       0x00456632        0xe /usr/lib/w32api/libuser32.a(dwxfs00213.o)
 .idata$6       0x00456640        0xe /usr/lib/w32api/libuser32.a(dwxfs00223.o)
 .idata$6       0x0045664e       0x14 /usr/lib/w32api/libuser32.a(dwxfs00224.o)
 .idata$6       0x00456662       0x10 /usr/lib/w32api/libuser32.a(dwxfs00235.o)
 .idata$6       0x00456672       0x14 /usr/lib/w32api/libuser32.a(dwxfs00237.o)
 .idata$6       0x00456686       0x10 /usr/lib/w32api/libuser32.a(dwxfs00246.o)
 .idata$6       0x00456696        0x8 /usr/lib/w32api/libuser32.a(dwxfs00247.o)
 .idata$6       0x0045669e       0x14 /usr/lib/w32api/libuser32.a(dwxfs00249.o)
 .idata$6       0x004566b2        0xe /usr/lib/w32api/libuser32.a(dwxfs00252.o)
 .idata$6       0x004566c0       0x12 /usr/lib/w32api/libuser32.a(dwxfs00254.o)
 .idata$6       0x004566d2       0x16 /usr/lib/w32api/libuser32.a(dwxfs00256.o)
 .idata$6       0x004566e8       0x16 /usr/lib/w32api/libuser32.a(dwxfs00258.o)
 .idata$6       0x004566fe       0x14 /usr/lib/w32api/libuser32.a(dwxfs00268.o)
 .idata$6       0x00456712       0x14 /usr/lib/w32api/libuser32.a(dwxfs00272.o)
 .idata$6       0x00456726        0xe /usr/lib/w32api/libuser32.a(dwxfs00292.o)
 .idata$6       0x00456734       0x12 /usr/lib/w32api/libuser32.a(dwxfs00295.o)
 .idata$6       0x00456746        0xc /usr/lib/w32api/libuser32.a(dwxfs00303.o)
 .idata$6       0x00456752        0xe /usr/lib/w32api/libuser32.a(dwxfs00322.o)
 .idata$6       0x00456760       0x10 /usr/lib/w32api/libuser32.a(dwxfs00324.o)
 .idata$6       0x00456770       0x12 /usr/lib/w32api/libuser32.a(dwxfs00340.o)
 .idata$6       0x00456782       0x16 /usr/lib/w32api/libuser32.a(dwxfs00345.o)
 .idata$6       0x00456798       0x10 /usr/lib/w32api/libuser32.a(dwxfs00346.o)
 .idata$6       0x004567a8       0x12 /usr/lib/w32api/libuser32.a(dwxfs00348.o)
 .idata$6       0x004567ba       0x18 /usr/lib/w32api/libuser32.a(dwxfs00349.o)
 .idata$6       0x004567d2        0xc /usr/lib/w32api/libuser32.a(dwxfs00356.o)
 .idata$6       0x004567de        0xe /usr/lib/w32api/libuser32.a(dwxfs00362.o)
 .idata$6       0x004567ec       0x12 /usr/lib/w32api/libuser32.a(dwxfs00368.o)
 .idata$6       0x004567fe       0x14 /usr/lib/w32api/libuser32.a(dwxfs00382.o)
 .idata$6       0x00456812       0x16 /usr/lib/w32api/libuser32.a(dwxfs00384.o)
 .idata$6       0x00456828        0xc /usr/lib/w32api/libuser32.a(dwxfs00387.o)
 .idata$6       0x00456834        0xc /usr/lib/w32api/libuser32.a(dwxfs00391.o)
 .idata$6       0x00456840        0xc /usr/lib/w32api/libuser32.a(dwxfs00395.o)
 .idata$6       0x0045684c        0xc /usr/lib/w32api/libuser32.a(dwxfs00397.o)
 .idata$6       0x00456858        0xe /usr/lib/w32api/libuser32.a(dwxfs00402.o)
 .idata$6       0x00456866        0xc /usr/lib/w32api/libuser32.a(dwxfs00406.o)
 .idata$6       0x00456872       0x10 /usr/lib/w32api/libuser32.a(dwxfs00423.o)
 .idata$6       0x00456882        0xe /usr/lib/w32api/libuser32.a(dwxfs00430.o)
 .idata$6       0x00456890        0xe /usr/lib/w32api/libuser32.a(dwxfs00431.o)
 .idata$6       0x0045689e       0x16 /usr/lib/w32api/libuser32.a(dwxfs00434.o)
 .idata$6       0x004568b4        0xe /usr/lib/w32api/libuser32.a(dwxfs00442.o)
 .idata$6       0x004568c2       0x1c /usr/lib/w32api/libuser32.a(dwxfs00443.o)
 .idata$6       0x004568de       0x10 /usr/lib/w32api/libuser32.a(dwxfs00452.o)
 .idata$6       0x004568ee       0x10 /usr/lib/w32api/libuser32.a(dwxfs00461.o)
 .idata$6       0x004568fe       0x10 /usr/lib/w32api/libuser32.a(dwxfs00463.o)
 .idata$6       0x0045690e       0x12 /usr/lib/w32api/libuser32.a(dwxfs00465.o)
 .idata$6       0x00456920       0x12 /usr/lib/w32api/libuser32.a(dwxfs00476.o)
 .idata$6       0x00456932       0x1c /usr/lib/w32api/libuser32.a(dwxfs00480.o)
 .idata$6       0x0045694e       0x1a /usr/lib/w32api/libuser32.a(dwxfs00487.o)
 .idata$6       0x00456968       0x12 /usr/lib/w32api/libuser32.a(dwxfs00489.o)
 .idata$6       0x0045697a        0xc /usr/lib/w32api/libuser32.a(dwxfs00490.o)
 .idata$6       0x00456986       0x16 /usr/lib/w32api/libuser32.a(dwxfs00501.o)
 .idata$6       0x0045699c       0x10 /usr/lib/w32api/libuser32.a(dwxfs00504.o)
 .idata$6       0x004569ac       0x12 /usr/lib/w32api/libuser32.a(dwxfs00512.o)
 .idata$6       0x004569be        0xe /usr/lib/w32api/libuser32.a(dwxfs00513.o)
 .idata$6       0x004569cc        0xe /usr/lib/w32api/libuser32.a(dwxfs00515.o)
 .idata$6       0x004569da       0x10 /usr/lib/w32api/libuser32.a(dwxfs00516.o)
 .idata$6       0x004569ea       0x14 /usr/lib/w32api/libuser32.a(dwxfs00519.o)
 .idata$6       0x004569fe        0xc /usr/lib/w32api/libuser32.a(dwxfs00521.o)
 .idata$6       0x00456a0a       0x12 /usr/lib/w32api/libuser32.a(dwxfs00526.o)
 .idata$6       0x00456a1c        0xc /usr/lib/w32api/libuser32.a(dwxfs00529.o)
 .idata$6       0x00456a28       0x16 /usr/lib/w32api/libuser32.a(dwxfs00530.o)
 .idata$6       0x00456a3e       0x14 /usr/lib/w32api/libuser32.a(dwxfs00531.o)
 .idata$6       0x00456a52       0x10 /usr/lib/w32api/libuser32.a(dwxfs00550.o)
 .idata$6       0x00456a62        0xc /usr/lib/w32api/libuser32.a(dwxfs00559.o)
 .idata$6       0x00456a6e       0x12 /usr/lib/w32api/libuser32.a(dwxfs00565.o)
 .idata$6       0x00456a80       0x16 /usr/lib/w32api/libuser32.a(dwxfs00567.o)
 .idata$6       0x00456a96       0x10 /usr/lib/w32api/libuser32.a(dwxfs00568.o)
 .idata$6       0x00456aa6       0x12 /usr/lib/w32api/libuser32.a(dwxfs00570.o)
 .idata$6       0x00456ab8        0xc /usr/lib/w32api/libuser32.a(dwxfs00577.o)
 .idata$6       0x00456ac4        0xe /usr/lib/w32api/libuser32.a(dwxfs00578.o)
 .idata$6       0x00456ad2        0xe /usr/lib/w32api/libuser32.a(dwxfs00581.o)
 .idata$6       0x00456ae0       0x18 /usr/lib/w32api/libuser32.a(dwxfs00587.o)
 .idata$6       0x00456af8        0xc /usr/lib/w32api/libuser32.a(dwxfs00594.o)
 .idata$6       0x00456b04       0x12 /usr/lib/w32api/libuser32.a(dwxfs00598.o)
 .idata$6       0x00456b16       0x14 /usr/lib/w32api/libuser32.a(dwxfs00604.o)
 .idata$6       0x00456b2a       0x10 /usr/lib/w32api/libuser32.a(dwxfs00617.o)
 .idata$6       0x00456b3a        0xc /usr/lib/w32api/libuser32.a(dwxfs00627.o)
 .idata$6       0x00456b46        0xe /usr/lib/w32api/libwinmm.a(dumfs00008.o)
 .idata$6       0x00456b54       0x10 /usr/lib/w32api/libwinspool.a(dwbds00025.o)
 .idata$6       0x00456b64       0x10 /usr/lib/w32api/libwinspool.a(dwbds00059.o)
 .idata$6       0x00456b74       0x12 /usr/lib/w32api/libwinspool.a(dwbds00060.o)
 .idata$6       0x00456b86       0x10 /usr/lib/w32api/libwinspool.a(dwbds00078.o)
 .idata$6       0x00456b96       0x10 /usr/lib/w32api/libwinspool.a(dwbds00102.o)
 .idata$6       0x00456ba6       0x14 /usr/lib/w32api/libwinspool.a(dwbds00126.o)
 .idata$6       0x00456bba       0x14 /usr/lib/w32api/libwinspool.a(dwbds00128.o)
 .idata$6       0x00456bce       0x10 /usr/lib/w32api/libwinspool.a(dwbds00130.o)
 SORT(*)(.idata$7)
 *fill*         0x00456bde        0x2 00
 .idata$7       0x00456be0        0x4 /usr/lib/gcc/i686-pc-mingw32/3.4.4/../../../../i686-pc-mingw32/lib/libmoldname.a(dctgs00084.o)
 .idata$7       0x00456be4        0xc /usr/lib/gcc/i686-pc-mingw32/3.4.4/../../../../i686-pc-mingw32/lib/libmoldname.a(dctgt.o)
                0x00456be4                __libmoldname_a_iname
 .idata$7       0x00456bf0        0x4 /usr/lib/gcc/i686-pc-mingw32/3.4.4/../../../../i686-pc-mingw32/lib/libmsvcrt.a(doxfs00055.o)
 .idata$7       0x00456bf4        0x4 /usr/lib/gcc/i686-pc-mingw32/3.4.4/../../../../i686-pc-mingw32/lib/libmsvcrt.a(doxfs00065.o)
 .idata$7       0x00456bf8        0x4 /usr/lib/gcc/i686-pc-mingw32/3.4.4/../../../../i686-pc-mingw32/lib/libmsvcrt.a(doxfs00077.o)
 .idata$7       0x00456bfc        0x4 /usr/lib/gcc/i686-pc-mingw32/3.4.4/../../../../i686-pc-mingw32/lib/libmsvcrt.a(doxfs00079.o)
 .idata$7       0x00456c00        0x4 /usr/lib/gcc/i686-pc-mingw32/3.4.4/../../../../i686-pc-mingw32/lib/libmsvcrt.a(doxfs00099.o)
 .idata$7       0x00456c04        0x4 /usr/lib/gcc/i686-pc-mingw32/3.4.4/../../../../i686-pc-mingw32/lib/libmsvcrt.a(doxfs00137.o)
 .idata$7       0x00456c08        0x4 /usr/lib/gcc/i686-pc-mingw32/3.4.4/../../../../i686-pc-mingw32/lib/libmsvcrt.a(doxfs00147.o)
 .idata$7       0x00456c0c        0x4 /usr/lib/gcc/i686-pc-mingw32/3.4.4/../../../../i686-pc-mingw32/lib/libmsvcrt.a(doxfs00266.o)
 .idata$7       0x00456c10        0x4 /usr/lib/gcc/i686-pc-mingw32/3.4.4/../../../../i686-pc-mingw32/lib/libmsvcrt.a(doxfs00268.o)
 .idata$7       0x00456c14        0x4 /usr/lib/gcc/i686-pc-mingw32/3.4.4/../../../../i686-pc-mingw32/lib/libmsvcrt.a(doxfs00383.o)
 .idata$7       0x00456c18        0x4 /usr/lib/gcc/i686-pc-mingw32/3.4.4/../../../../i686-pc-mingw32/lib/libmsvcrt.a(doxfs00392.o)
 .idata$7       0x00456c1c        0x4 /usr/lib/gcc/i686-pc-mingw32/3.4.4/../../../../i686-pc-mingw32/lib/libmsvcrt.a(doxfs00426.o)
 .idata$7       0x00456c20        0x4 /usr/lib/gcc/i686-pc-mingw32/3.4.4/../../../../i686-pc-mingw32/lib/libmsvcrt.a(doxfs00490.o)
 .idata$7       0x00456c24        0x4 /usr/lib/gcc/i686-pc-mingw32/3.4.4/../../../../i686-pc-mingw32/lib/libmsvcrt.a(doxfs00590.o)
 .idata$7       0x00456c28        0x4 /usr/lib/gcc/i686-pc-mingw32/3.4.4/../../../../i686-pc-mingw32/lib/libmsvcrt.a(doxfs00591.o)
 .idata$7       0x00456c2c        0x4 /usr/lib/gcc/i686-pc-mingw32/3.4.4/../../../../i686-pc-mingw32/lib/libmsvcrt.a(doxfs00592.o)
 .idata$7       0x00456c30        0x4 /usr/lib/gcc/i686-pc-mingw32/3.4.4/../../../../i686-pc-mingw32/lib/libmsvcrt.a(doxfs00604.o)
 .idata$7       0x00456c34        0x4 /usr/lib/gcc/i686-pc-mingw32/3.4.4/../../../../i686-pc-mingw32/lib/libmsvcrt.a(doxfs00607.o)
 .idata$7       0x00456c38        0x4 /usr/lib/gcc/i686-pc-mingw32/3.4.4/../../../../i686-pc-mingw32/lib/libmsvcrt.a(doxfs00610.o)
 .idata$7       0x00456c3c        0x4 /usr/lib/gcc/i686-pc-mingw32/3.4.4/../../../../i686-pc-mingw32/lib/libmsvcrt.a(doxfs00611.o)
 .idata$7       0x00456c40        0x4 /usr/lib/gcc/i686-pc-mingw32/3.4.4/../../../../i686-pc-mingw32/lib/libmsvcrt.a(doxfs00613.o)
 .idata$7       0x00456c44        0x4 /usr/lib/gcc/i686-pc-mingw32/3.4.4/../../../../i686-pc-mingw32/lib/libmsvcrt.a(doxfs00618.o)
 .idata$7       0x00456c48        0x4 /usr/lib/gcc/i686-pc-mingw32/3.4.4/../../../../i686-pc-mingw32/lib/libmsvcrt.a(doxfs00619.o)
 .idata$7       0x00456c4c        0x4 /usr/lib/gcc/i686-pc-mingw32/3.4.4/../../../../i686-pc-mingw32/lib/libmsvcrt.a(doxfs00621.o)
 .idata$7       0x00456c50        0x4 /usr/lib/gcc/i686-pc-mingw32/3.4.4/../../../../i686-pc-mingw32/lib/libmsvcrt.a(doxfs00625.o)
 .idata$7       0x00456c54        0x4 /usr/lib/gcc/i686-pc-mingw32/3.4.4/../../../../i686-pc-mingw32/lib/libmsvcrt.a(doxfs00633.o)
 .idata$7       0x00456c58        0x4 /usr/lib/gcc/i686-pc-mingw32/3.4.4/../../../../i686-pc-mingw32/lib/libmsvcrt.a(doxfs00637.o)
 .idata$7       0x00456c5c        0x4 /usr/lib/gcc/i686-pc-mingw32/3.4.4/../../../../i686-pc-mingw32/lib/libmsvcrt.a(doxfs00676.o)
 .idata$7       0x00456c60        0x4 /usr/lib/gcc/i686-pc-mingw32/3.4.4/../../../../i686-pc-mingw32/lib/libmsvcrt.a(doxfs00682.o)
 .idata$7       0x00456c64        0x4 /usr/lib/gcc/i686-pc-mingw32/3.4.4/../../../../i686-pc-mingw32/lib/libmsvcrt.a(doxfs00683.o)
 .idata$7       0x00456c68        0x4 /usr/lib/gcc/i686-pc-mingw32/3.4.4/../../../../i686-pc-mingw32/lib/libmsvcrt.a(doxfs00684.o)
 .idata$7       0x00456c6c        0x4 /usr/lib/gcc/i686-pc-mingw32/3.4.4/../../../../i686-pc-mingw32/lib/libmsvcrt.a(doxfs00695.o)
 .idata$7       0x00456c70        0x4 /usr/lib/gcc/i686-pc-mingw32/3.4.4/../../../../i686-pc-mingw32/lib/libmsvcrt.a(doxfs00698.o)
 .idata$7       0x00456c74        0x4 /usr/lib/gcc/i686-pc-mingw32/3.4.4/../../../../i686-pc-mingw32/lib/libmsvcrt.a(doxfs00699.o)
 .idata$7       0x00456c78        0x4 /usr/lib/gcc/i686-pc-mingw32/3.4.4/../../../../i686-pc-mingw32/lib/libmsvcrt.a(doxfs00706.o)
 .idata$7       0x00456c7c        0x4 /usr/lib/gcc/i686-pc-mingw32/3.4.4/../../../../i686-pc-mingw32/lib/libmsvcrt.a(doxfs00709.o)
 .idata$7       0x00456c80        0x4 /usr/lib/gcc/i686-pc-mingw32/3.4.4/../../../../i686-pc-mingw32/lib/libmsvcrt.a(doxfs00712.o)
 .idata$7       0x00456c84        0x4 /usr/lib/gcc/i686-pc-mingw32/3.4.4/../../../../i686-pc-mingw32/lib/libmsvcrt.a(doxfs00713.o)
 .idata$7       0x00456c88        0x4 /usr/lib/gcc/i686-pc-mingw32/3.4.4/../../../../i686-pc-mingw32/lib/libmsvcrt.a(doxfs00714.o)
 .idata$7       0x00456c8c        0x4 /usr/lib/gcc/i686-pc-mingw32/3.4.4/../../../../i686-pc-mingw32/lib/libmsvcrt.a(doxfs00715.o)
 .idata$7       0x00456c90        0x4 /usr/lib/gcc/i686-pc-mingw32/3.4.4/../../../../i686-pc-mingw32/lib/libmsvcrt.a(doxfs00717.o)
 .idata$7       0x00456c94        0x4 /usr/lib/gcc/i686-pc-mingw32/3.4.4/../../../../i686-pc-mingw32/lib/libmsvcrt.a(doxfs00718.o)
 .idata$7       0x00456c98        0x4 /usr/lib/gcc/i686-pc-mingw32/3.4.4/../../../../i686-pc-mingw32/lib/libmsvcrt.a(doxfs00720.o)
 .idata$7       0x00456c9c        0x4 /usr/lib/gcc/i686-pc-mingw32/3.4.4/../../../../i686-pc-mingw32/lib/libmsvcrt.a(doxfs00721.o)
 .idata$7       0x00456ca0        0x4 /usr/lib/gcc/i686-pc-mingw32/3.4.4/../../../../i686-pc-mingw32/lib/libmsvcrt.a(doxfs00722.o)
 .idata$7       0x00456ca4        0x4 /usr/lib/gcc/i686-pc-mingw32/3.4.4/../../../../i686-pc-mingw32/lib/libmsvcrt.a(doxfs00723.o)
 .idata$7       0x00456ca8        0x4 /usr/lib/gcc/i686-pc-mingw32/3.4.4/../../../../i686-pc-mingw32/lib/libmsvcrt.a(doxfs00724.o)
 .idata$7       0x00456cac        0x4 /usr/lib/gcc/i686-pc-mingw32/3.4.4/../../../../i686-pc-mingw32/lib/libmsvcrt.a(doxfs00726.o)
 .idata$7       0x00456cb0        0x4 /usr/lib/gcc/i686-pc-mingw32/3.4.4/../../../../i686-pc-mingw32/lib/libmsvcrt.a(doxfs00730.o)
 .idata$7       0x00456cb4        0x4 /usr/lib/gcc/i686-pc-mingw32/3.4.4/../../../../i686-pc-mingw32/lib/libmsvcrt.a(doxfs00731.o)
 .idata$7       0x00456cb8        0x4 /usr/lib/gcc/i686-pc-mingw32/3.4.4/../../../../i686-pc-mingw32/lib/libmsvcrt.a(doxfs00732.o)
 .idata$7       0x00456cbc        0x4 /usr/lib/gcc/i686-pc-mingw32/3.4.4/../../../../i686-pc-mingw32/lib/libmsvcrt.a(doxfs00742.o)
 .idata$7       0x00456cc0        0x4 /usr/lib/gcc/i686-pc-mingw32/3.4.4/../../../../i686-pc-mingw32/lib/libmsvcrt.a(doxfs00743.o)
 .idata$7       0x00456cc4        0xc /usr/lib/gcc/i686-pc-mingw32/3.4.4/../../../../i686-pc-mingw32/lib/libmsvcrt.a(doxft.o)
                0x00456cc4                __libmsvcrt_a_iname
 .idata$7       0x00456cd0        0x4 /usr/lib/w32api/libadvapi32.a(dykgs00245.o)
 .idata$7       0x00456cd4        0x4 /usr/lib/w32api/libadvapi32.a(dykgs00386.o)
 .idata$7       0x00456cd8        0x4 /usr/lib/w32api/libadvapi32.a(dykgs00389.o)
 .idata$7       0x00456cdc        0x4 /usr/lib/w32api/libadvapi32.a(dykgs00393.o)
 .idata$7       0x00456ce0        0x4 /usr/lib/w32api/libadvapi32.a(dykgs00400.o)
 .idata$7       0x00456ce4        0x4 /usr/lib/w32api/libadvapi32.a(dykgs00412.o)
 .idata$7       0x00456ce8        0x4 /usr/lib/w32api/libadvapi32.a(dykgs00423.o)
 .idata$7       0x00456cec        0x4 /usr/lib/w32api/libadvapi32.a(dykgs00434.o)
 .idata$7       0x00456cf0       0x10 /usr/lib/w32api/libadvapi32.a(dykgt.o)
                0x00456cf0                __libadvapi32_a_iname
 .idata$7       0x00456d00        0x4 /usr/lib/w32api/libcomctl32.a(dkzhs00041.o)
 .idata$7       0x00456d04        0x4 /usr/lib/w32api/libcomctl32.a(dkzhs00091.o)
 .idata$7       0x00456d08        0x4 /usr/lib/w32api/libcomctl32.a(dkzhs00093.o)
 .idata$7       0x00456d0c        0x4 /usr/lib/w32api/libcomctl32.a(dkzhs00094.o)
 .idata$7       0x00456d10       0x10 /usr/lib/w32api/libcomctl32.a(dkzht.o)
                0x00456d10                __libcomctl32_a_iname
 .idata$7       0x00456d20        0x4 /usr/lib/w32api/libcomdlg32.a(dmycs00000.o)
 .idata$7       0x00456d24        0x4 /usr/lib/w32api/libcomdlg32.a(dmycs00002.o)
 .idata$7       0x00456d28        0x4 /usr/lib/w32api/libcomdlg32.a(dmycs00009.o)
 .idata$7       0x00456d2c        0x4 /usr/lib/w32api/libcomdlg32.a(dmycs00011.o)
 .idata$7       0x00456d30       0x10 /usr/lib/w32api/libcomdlg32.a(dmyct.o)
                0x00456d30                __libcomdlg32_a_iname
 .idata$7       0x00456d40        0x4 /usr/lib/w32api/libgdi32.a(dyohs00028.o)
 .idata$7       0x00456d44        0x4 /usr/lib/w32api/libgdi32.a(dyohs00033.o)
 .idata$7       0x00456d48        0x4 /usr/lib/w32api/libgdi32.a(dyohs00034.o)
 .idata$7       0x00456d4c        0x4 /usr/lib/w32api/libgdi32.a(dyohs00046.o)
 .idata$7       0x00456d50        0x4 /usr/lib/w32api/libgdi32.a(dyohs00047.o)
 .idata$7       0x00456d54        0x4 /usr/lib/w32api/libgdi32.a(dyohs00056.o)
 .idata$7       0x00456d58        0x4 /usr/lib/w32api/libgdi32.a(dyohs00058.o)
 .idata$7       0x00456d5c        0x4 /usr/lib/w32api/libgdi32.a(dyohs00067.o)
 .idata$7       0x00456d60        0x4 /usr/lib/w32api/libgdi32.a(dyohs00070.o)
 .idata$7       0x00456d64        0x4 /usr/lib/w32api/libgdi32.a(dyohs00073.o)
 .idata$7       0x00456d68        0x4 /usr/lib/w32api/libgdi32.a(dyohs00096.o)
 .idata$7       0x00456d6c        0x4 /usr/lib/w32api/libgdi32.a(dyohs00102.o)
 .idata$7       0x00456d70        0x4 /usr/lib/w32api/libgdi32.a(dyohs00103.o)
 .idata$7       0x00456d74        0x4 /usr/lib/w32api/libgdi32.a(dyohs00129.o)
 .idata$7       0x00456d78        0x4 /usr/lib/w32api/libgdi32.a(dyohs00130.o)
 .idata$7       0x00456d7c        0x4 /usr/lib/w32api/libgdi32.a(dyohs00131.o)
 .idata$7       0x00456d80        0x4 /usr/lib/w32api/libgdi32.a(dyohs00134.o)
 .idata$7       0x00456d84        0x4 /usr/lib/w32api/libgdi32.a(dyohs00136.o)
 .idata$7       0x00456d88        0x4 /usr/lib/w32api/libgdi32.a(dyohs00146.o)
 .idata$7       0x00456d8c        0x4 /usr/lib/w32api/libgdi32.a(dyohs00183.o)
 .idata$7       0x00456d90        0x4 /usr/lib/w32api/libgdi32.a(dyohs00190.o)
 .idata$7       0x00456d94        0x4 /usr/lib/w32api/libgdi32.a(dyohs00199.o)
 .idata$7       0x00456d98        0x4 /usr/lib/w32api/libgdi32.a(dyohs00208.o)
 .idata$7       0x00456d9c        0x4 /usr/lib/w32api/libgdi32.a(dyohs00211.o)
 .idata$7       0x00456da0        0x4 /usr/lib/w32api/libgdi32.a(dyohs00217.o)
 .idata$7       0x00456da4        0x4 /usr/lib/w32api/libgdi32.a(dyohs00225.o)
 .idata$7       0x00456da8        0x4 /usr/lib/w32api/libgdi32.a(dyohs00229.o)
 .idata$7       0x00456dac        0x4 /usr/lib/w32api/libgdi32.a(dyohs00232.o)
 .idata$7       0x00456db0        0x4 /usr/lib/w32api/libgdi32.a(dyohs00254.o)
 .idata$7       0x00456db4        0x4 /usr/lib/w32api/libgdi32.a(dyohs00258.o)
 .idata$7       0x00456db8        0x4 /usr/lib/w32api/libgdi32.a(dyohs00261.o)
 .idata$7       0x00456dbc        0x4 /usr/lib/w32api/libgdi32.a(dyohs00279.o)
 .idata$7       0x00456dc0        0x4 /usr/lib/w32api/libgdi32.a(dyohs00280.o)
 .idata$7       0x00456dc4        0x4 /usr/lib/w32api/libgdi32.a(dyohs00285.o)
 .idata$7       0x00456dc8        0x4 /usr/lib/w32api/libgdi32.a(dyohs00286.o)
 .idata$7       0x00456dcc        0x4 /usr/lib/w32api/libgdi32.a(dyohs00304.o)
 .idata$7       0x00456dd0        0x4 /usr/lib/w32api/libgdi32.a(dyohs00309.o)
 .idata$7       0x00456dd4        0x4 /usr/lib/w32api/libgdi32.a(dyohs00310.o)
 .idata$7       0x00456dd8        0x4 /usr/lib/w32api/libgdi32.a(dyohs00319.o)
 .idata$7       0x00456ddc        0x4 /usr/lib/w32api/libgdi32.a(dyohs00321.o)
 .idata$7       0x00456de0        0x4 /usr/lib/w32api/libgdi32.a(dyohs00337.o)
 .idata$7       0x00456de4        0x4 /usr/lib/w32api/libgdi32.a(dyohs00339.o)
 .idata$7       0x00456de8        0x4 /usr/lib/w32api/libgdi32.a(dyohs00340.o)
 .idata$7       0x00456dec        0x4 /usr/lib/w32api/libgdi32.a(dyohs00341.o)
 .idata$7       0x00456df0        0xc /usr/lib/w32api/libgdi32.a(dyoht.o)
                0x00456df0                __libgdi32_a_iname
 .idata$7       0x00456dfc        0x4 /usr/lib/w32api/libimm32.a(dasfs00023.o)
 .idata$7       0x00456e00        0x4 /usr/lib/w32api/libimm32.a(dasfs00025.o)
 .idata$7       0x00456e04        0x4 /usr/lib/w32api/libimm32.a(dasfs00059.o)
 .idata$7       0x00456e08        0x4 /usr/lib/w32api/libimm32.a(dasfs00061.o)
 .idata$7       0x00456e0c        0x4 /usr/lib/w32api/libimm32.a(dasfs00065.o)
 .idata$7       0x00456e10        0xc /usr/lib/w32api/libimm32.a(dasft.o)
                0x00456e10                __libimm32_a_iname
 .idata$7       0x00456e1c        0x4 /usr/lib/w32api/libkernel32.a(dyuhs00009.o)
 .idata$7       0x00456e20        0x4 /usr/lib/w32api/libkernel32.a(dyuhs00018.o)
 .idata$7       0x00456e24        0x4 /usr/lib/w32api/libkernel32.a(dyuhs00035.o)
 .idata$7       0x00456e28        0x4 /usr/lib/w32api/libkernel32.a(dyuhs00038.o)
 .idata$7       0x00456e2c        0x4 /usr/lib/w32api/libkernel32.a(dyuhs00064.o)
 .idata$7       0x00456e30        0x4 /usr/lib/w32api/libkernel32.a(dyuhs00068.o)
 .idata$7       0x00456e34        0x4 /usr/lib/w32api/libkernel32.a(dyuhs00069.o)
 .idata$7       0x00456e38        0x4 /usr/lib/w32api/libkernel32.a(dyuhs00084.o)
 .idata$7       0x00456e3c        0x4 /usr/lib/w32api/libkernel32.a(dyuhs00085.o)
 .idata$7       0x00456e40        0x4 /usr/lib/w32api/libkernel32.a(dyuhs00091.o)
 .idata$7       0x00456e44        0x4 /usr/lib/w32api/libkernel32.a(dyuhs00156.o)
 .idata$7       0x00456e48        0x4 /usr/lib/w32api/libkernel32.a(dyuhs00214.o)
 .idata$7       0x00456e4c        0x4 /usr/lib/w32api/libkernel32.a(dyuhs00220.o)
 .idata$7       0x00456e50        0x4 /usr/lib/w32api/libkernel32.a(dyuhs00226.o)
 .idata$7       0x00456e54        0x4 /usr/lib/w32api/libkernel32.a(dyuhs00235.o)
 .idata$7       0x00456e58        0x4 /usr/lib/w32api/libkernel32.a(dyuhs00237.o)
 .idata$7       0x00456e5c        0x4 /usr/lib/w32api/libkernel32.a(dyuhs00281.o)
 .idata$7       0x00456e60        0x4 /usr/lib/w32api/libkernel32.a(dyuhs00303.o)
 .idata$7       0x00456e64        0x4 /usr/lib/w32api/libkernel32.a(dyuhs00325.o)
 .idata$7       0x00456e68        0x4 /usr/lib/w32api/libkernel32.a(dyuhs00326.o)
 .idata$7       0x00456e6c        0x4 /usr/lib/w32api/libkernel32.a(dyuhs00327.o)
 .idata$7       0x00456e70        0x4 /usr/lib/w32api/libkernel32.a(dyuhs00335.o)
 .idata$7       0x00456e74        0x4 /usr/lib/w32api/libkernel32.a(dyuhs00337.o)
 .idata$7       0x00456e78        0x4 /usr/lib/w32api/libkernel32.a(dyuhs00351.o)
 .idata$7       0x00456e7c        0x4 /usr/lib/w32api/libkernel32.a(dyuhs00352.o)
 .idata$7       0x00456e80        0x4 /usr/lib/w32api/libkernel32.a(dyuhs00364.o)
 .idata$7       0x00456e84        0x4 /usr/lib/w32api/libkernel32.a(dyuhs00386.o)
 .idata$7       0x00456e88        0x4 /usr/lib/w32api/libkernel32.a(dyuhs00388.o)
 .idata$7       0x00456e8c        0x4 /usr/lib/w32api/libkernel32.a(dyuhs00423.o)
 .idata$7       0x00456e90        0x4 /usr/lib/w32api/libkernel32.a(dyuhs00433.o)
 .idata$7       0x00456e94        0x4 /usr/lib/w32api/libkernel32.a(dyuhs00443.o)
 .idata$7       0x00456e98        0x4 /usr/lib/w32api/libkernel32.a(dyuhs00448.o)
 .idata$7       0x00456e9c        0x4 /usr/lib/w32api/libkernel32.a(dyuhs00455.o)
 .idata$7       0x00456ea0        0x4 /usr/lib/w32api/libkernel32.a(dyuhs00459.o)
 .idata$7       0x00456ea4        0x4 /usr/lib/w32api/libkernel32.a(dyuhs00467.o)
 .idata$7       0x00456ea8        0x4 /usr/lib/w32api/libkernel32.a(dyuhs00512.o)
 .idata$7       0x00456eac        0x4 /usr/lib/w32api/libkernel32.a(dyuhs00524.o)
 .idata$7       0x00456eb0        0x4 /usr/lib/w32api/libkernel32.a(dyuhs00546.o)
 .idata$7       0x00456eb4        0x4 /usr/lib/w32api/libkernel32.a(dyuhs00559.o)
 .idata$7       0x00456eb8        0x4 /usr/lib/w32api/libkernel32.a(dyuhs00560.o)
 .idata$7       0x00456ebc        0x4 /usr/lib/w32api/libkernel32.a(dyuhs00616.o)
 .idata$7       0x00456ec0        0x4 /usr/lib/w32api/libkernel32.a(dyuhs00652.o)
 .idata$7       0x00456ec4        0x4 /usr/lib/w32api/libkernel32.a(dyuhs00655.o)
 .idata$7       0x00456ec8        0x4 /usr/lib/w32api/libkernel32.a(dyuhs00656.o)
 .idata$7       0x00456ecc        0x4 /usr/lib/w32api/libkernel32.a(dyuhs00688.o)
 .idata$7       0x00456ed0        0x4 /usr/lib/w32api/libkernel32.a(dyuhs00698.o)
 .idata$7       0x00456ed4        0x4 /usr/lib/w32api/libkernel32.a(dyuhs00710.o)
 .idata$7       0x00456ed8        0x4 /usr/lib/w32api/libkernel32.a(dyuhs00739.o)
 .idata$7       0x00456edc        0x4 /usr/lib/w32api/libkernel32.a(dyuhs00776.o)
 .idata$7       0x00456ee0        0x4 /usr/lib/w32api/libkernel32.a(dyuhs00810.o)
 .idata$7       0x00456ee4        0x4 /usr/lib/w32api/libkernel32.a(dyuhs00814.o)
 .idata$7       0x00456ee8        0x4 /usr/lib/w32api/libkernel32.a(dyuhs00827.o)
 .idata$7       0x00456eec       0x10 /usr/lib/w32api/libkernel32.a(dyuht.o)
                0x00456eec                __libkernel32_a_iname
 .idata$7       0x00456efc        0x4 /usr/lib/w32api/libshell32.a(dsdfs00143.o)
 .idata$7       0x00456f00        0xc /usr/lib/w32api/libshell32.a(dsdft.o)
                0x00456f00                __libshell32_a_iname
 .idata$7       0x00456f0c        0x4 /usr/lib/w32api/libuser32.a(dwxfs00006.o)
 .idata$7       0x00456f10        0x4 /usr/lib/w32api/libuser32.a(dwxfs00011.o)
 .idata$7       0x00456f14        0x4 /usr/lib/w32api/libuser32.a(dwxfs00053.o)
 .idata$7       0x00456f18        0x4 /usr/lib/w32api/libuser32.a(dwxfs00054.o)
 .idata$7       0x00456f1c        0x4 /usr/lib/w32api/libuser32.a(dwxfs00056.o)
 .idata$7       0x00456f20        0x4 /usr/lib/w32api/libuser32.a(dwxfs00061.o)
 .idata$7       0x00456f24        0x4 /usr/lib/w32api/libuser32.a(dwxfs00073.o)
 .idata$7       0x00456f28        0x4 /usr/lib/w32api/libuser32.a(dwxfs00079.o)
 .idata$7       0x00456f2c        0x4 /usr/lib/w32api/libuser32.a(dwxfs00087.o)
 .idata$7       0x00456f30        0x4 /usr/lib/w32api/libuser32.a(dwxfs00088.o)
 .idata$7       0x00456f34        0x4 /usr/lib/w32api/libuser32.a(dwxfs00089.o)
 .idata$7       0x00456f38        0x4 /usr/lib/w32api/libuser32.a(dwxfs00126.o)
 .idata$7       0x00456f3c        0x4 /usr/lib/w32api/libuser32.a(dwxfs00133.o)
 .idata$7       0x00456f40        0x4 /usr/lib/w32api/libuser32.a(dwxfs00136.o)
 .idata$7       0x00456f44        0x4 /usr/lib/w32api/libuser32.a(dwxfs00139.o)
 .idata$7       0x00456f48        0x4 /usr/lib/w32api/libuser32.a(dwxfs00143.o)
 .idata$7       0x00456f4c        0x4 /usr/lib/w32api/libuser32.a(dwxfs00146.o)
 .idata$7       0x00456f50        0x4 /usr/lib/w32api/libuser32.a(dwxfs00148.o)
 .idata$7       0x00456f54        0x4 /usr/lib/w32api/libuser32.a(dwxfs00162.o)
 .idata$7       0x00456f58        0x4 /usr/lib/w32api/libuser32.a(dwxfs00176.o)
 .idata$7       0x00456f5c        0x4 /usr/lib/w32api/libuser32.a(dwxfs00177.o)
 .idata$7       0x00456f60        0x4 /usr/lib/w32api/libuser32.a(dwxfs00179.o)
 .idata$7       0x00456f64        0x4 /usr/lib/w32api/libuser32.a(dwxfs00181.o)
 .idata$7       0x00456f68        0x4 /usr/lib/w32api/libuser32.a(dwxfs00183.o)
 .idata$7       0x00456f6c        0x4 /usr/lib/w32api/libuser32.a(dwxfs00213.o)
 .idata$7       0x00456f70        0x4 /usr/lib/w32api/libuser32.a(dwxfs00223.o)
 .idata$7       0x00456f74        0x4 /usr/lib/w32api/libuser32.a(dwxfs00224.o)
 .idata$7       0x00456f78        0x4 /usr/lib/w32api/libuser32.a(dwxfs00235.o)
 .idata$7       0x00456f7c        0x4 /usr/lib/w32api/libuser32.a(dwxfs00237.o)
 .idata$7       0x00456f80        0x4 /usr/lib/w32api/libuser32.a(dwxfs00246.o)
 .idata$7       0x00456f84        0x4 /usr/lib/w32api/libuser32.a(dwxfs00247.o)
 .idata$7       0x00456f88        0x4 /usr/lib/w32api/libuser32.a(dwxfs00249.o)
 .idata$7       0x00456f8c        0x4 /usr/lib/w32api/libuser32.a(dwxfs00252.o)
 .idata$7       0x00456f90        0x4 /usr/lib/w32api/libuser32.a(dwxfs00254.o)
 .idata$7       0x00456f94        0x4 /usr/lib/w32api/libuser32.a(dwxfs00256.o)
 .idata$7       0x00456f98        0x4 /usr/lib/w32api/libuser32.a(dwxfs00258.o)
 .idata$7       0x00456f9c        0x4 /usr/lib/w32api/libuser32.a(dwxfs00268.o)
 .idata$7       0x00456fa0        0x4 /usr/lib/w32api/libuser32.a(dwxfs00272.o)
 .idata$7       0x00456fa4        0x4 /usr/lib/w32api/libuser32.a(dwxfs00292.o)
 .idata$7       0x00456fa8        0x4 /usr/lib/w32api/libuser32.a(dwxfs00295.o)
 .idata$7       0x00456fac        0x4 /usr/lib/w32api/libuser32.a(dwxfs00303.o)
 .idata$7       0x00456fb0        0x4 /usr/lib/w32api/libuser32.a(dwxfs00322.o)
 .idata$7       0x00456fb4        0x4 /usr/lib/w32api/libuser32.a(dwxfs00324.o)
 .idata$7       0x00456fb8        0x4 /usr/lib/w32api/libuser32.a(dwxfs00340.o)
 .idata$7       0x00456fbc        0x4 /usr/lib/w32api/libuser32.a(dwxfs00345.o)
 .idata$7       0x00456fc0        0x4 /usr/lib/w32api/libuser32.a(dwxfs00346.o)
 .idata$7       0x00456fc4        0x4 /usr/lib/w32api/libuser32.a(dwxfs00348.o)
 .idata$7       0x00456fc8        0x4 /usr/lib/w32api/libuser32.a(dwxfs00349.o)
 .idata$7       0x00456fcc        0x4 /usr/lib/w32api/libuser32.a(dwxfs00356.o)
 .idata$7       0x00456fd0        0x4 /usr/lib/w32api/libuser32.a(dwxfs00362.o)
 .idata$7       0x00456fd4        0x4 /usr/lib/w32api/libuser32.a(dwxfs00368.o)
 .idata$7       0x00456fd8        0x4 /usr/lib/w32api/libuser32.a(dwxfs00382.o)
 .idata$7       0x00456fdc        0x4 /usr/lib/w32api/libuser32.a(dwxfs00384.o)
 .idata$7       0x00456fe0        0x4 /usr/lib/w32api/libuser32.a(dwxfs00387.o)
 .idata$7       0x00456fe4        0x4 /usr/lib/w32api/libuser32.a(dwxfs00391.o)
 .idata$7       0x00456fe8        0x4 /usr/lib/w32api/libuser32.a(dwxfs00395.o)
 .idata$7       0x00456fec        0x4 /usr/lib/w32api/libuser32.a(dwxfs00397.o)
 .idata$7       0x00456ff0        0x4 /usr/lib/w32api/libuser32.a(dwxfs00402.o)
 .idata$7       0x00456ff4        0x4 /usr/lib/w32api/libuser32.a(dwxfs00406.o)
 .idata$7       0x00456ff8        0x4 /usr/lib/w32api/libuser32.a(dwxfs00423.o)
 .idata$7       0x00456ffc        0x4 /usr/lib/w32api/libuser32.a(dwxfs00430.o)
 .idata$7       0x00457000        0x4 /usr/lib/w32api/libuser32.a(dwxfs00431.o)
 .idata$7       0x00457004        0x4 /usr/lib/w32api/libuser32.a(dwxfs00434.o)
 .idata$7       0x00457008        0x4 /usr/lib/w32api/libuser32.a(dwxfs00442.o)
 .idata$7       0x0045700c        0x4 /usr/lib/w32api/libuser32.a(dwxfs00443.o)
 .idata$7       0x00457010        0x4 /usr/lib/w32api/libuser32.a(dwxfs00452.o)
 .idata$7       0x00457014        0x4 /usr/lib/w32api/libuser32.a(dwxfs00461.o)
 .idata$7       0x00457018        0x4 /usr/lib/w32api/libuser32.a(dwxfs00463.o)
 .idata$7       0x0045701c        0x4 /usr/lib/w32api/libuser32.a(dwxfs00465.o)
 .idata$7       0x00457020        0x4 /usr/lib/w32api/libuser32.a(dwxfs00476.o)
 .idata$7       0x00457024        0x4 /usr/lib/w32api/libuser32.a(dwxfs00480.o)
 .idata$7       0x00457028        0x4 /usr/lib/w32api/libuser32.a(dwxfs00487.o)
 .idata$7       0x0045702c        0x4 /usr/lib/w32api/libuser32.a(dwxfs00489.o)
 .idata$7       0x00457030        0x4 /usr/lib/w32api/libuser32.a(dwxfs00490.o)
 .idata$7       0x00457034        0x4 /usr/lib/w32api/libuser32.a(dwxfs00501.o)
 .idata$7       0x00457038        0x4 /usr/lib/w32api/libuser32.a(dwxfs00504.o)
 .idata$7       0x0045703c        0x4 /usr/lib/w32api/libuser32.a(dwxfs00512.o)
 .idata$7       0x00457040        0x4 /usr/lib/w32api/libuser32.a(dwxfs00513.o)
 .idata$7       0x00457044        0x4 /usr/lib/w32api/libuser32.a(dwxfs00515.o)
 .idata$7       0x00457048        0x4 /usr/lib/w32api/libuser32.a(dwxfs00516.o)
 .idata$7       0x0045704c        0x4 /usr/lib/w32api/libuser32.a(dwxfs00519.o)
 .idata$7       0x00457050        0x4 /usr/lib/w32api/libuser32.a(dwxfs00521.o)
 .idata$7       0x00457054        0x4 /usr/lib/w32api/libuser32.a(dwxfs00526.o)
 .idata$7       0x00457058        0x4 /usr/lib/w32api/libuser32.a(dwxfs00529.o)
 .idata$7       0x0045705c        0x4 /usr/lib/w32api/libuser32.a(dwxfs00530.o)
 .idata$7       0x00457060        0x4 /usr/lib/w32api/libuser32.a(dwxfs00531.o)
 .idata$7       0x00457064        0x4 /usr/lib/w32api/libuser32.a(dwxfs00550.o)
 .idata$7       0x00457068        0x4 /usr/lib/w32api/libuser32.a(dwxfs00559.o)
 .idata$7       0x0045706c        0x4 /usr/lib/w32api/libuser32.a(dwxfs00565.o)
 .idata$7       0x00457070        0x4 /usr/lib/w32api/libuser32.a(dwxfs00567.o)
 .idata$7       0x00457074        0x4 /usr/lib/w32api/libuser32.a(dwxfs00568.o)
 .idata$7       0x00457078        0x4 /usr/lib/w32api/libuser32.a(dwxfs00570.o)
 .idata$7       0x0045707c        0x4 /usr/lib/w32api/libuser32.a(dwxfs00577.o)
 .idata$7       0x00457080        0x4 /usr/lib/w32api/libuser32.a(dwxfs00578.o)
 .idata$7       0x00457084        0x4 /usr/lib/w32api/libuser32.a(dwxfs00581.o)
 .idata$7       0x00457088        0x4 /usr/lib/w32api/libuser32.a(dwxfs00587.o)
 .idata$7       0x0045708c        0x4 /usr/lib/w32api/libuser32.a(dwxfs00594.o)
 .idata$7       0x00457090        0x4 /usr/lib/w32api/libuser32.a(dwxfs00598.o)
 .idata$7       0x00457094        0x4 /usr/lib/w32api/libuser32.a(dwxfs00604.o)
 .idata$7       0x00457098        0x4 /usr/lib/w32api/libuser32.a(dwxfs00617.o)
 .idata$7       0x0045709c        0x4 /usr/lib/w32api/libuser32.a(dwxfs00627.o)
 .idata$7       0x004570a0        0xc /usr/lib/w32api/libuser32.a(dwxft.o)
                0x004570a0                __libuser32_a_iname
 .idata$7       0x004570ac        0x4 /usr/lib/w32api/libwinmm.a(dumfs00008.o)
 .idata$7       0x004570b0        0xc /usr/lib/w32api/libwinmm.a(dumft.o)
                0x004570b0                __libwinmm_a_iname
 .idata$7       0x004570bc        0x4 /usr/lib/w32api/libwinspool.a(dwbds00025.o)
 .idata$7       0x004570c0        0x4 /usr/lib/w32api/libwinspool.a(dwbds00059.o)
 .idata$7       0x004570c4        0x4 /usr/lib/w32api/libwinspool.a(dwbds00060.o)
 .idata$7       0x004570c8        0x4 /usr/lib/w32api/libwinspool.a(dwbds00078.o)
 .idata$7       0x004570cc        0x4 /usr/lib/w32api/libwinspool.a(dwbds00102.o)
 .idata$7       0x004570d0        0x4 /usr/lib/w32api/libwinspool.a(dwbds00126.o)
 .idata$7       0x004570d4        0x4 /usr/lib/w32api/libwinspool.a(dwbds00128.o)
 .idata$7       0x004570d8        0x4 /usr/lib/w32api/libwinspool.a(dwbds00130.o)
 .idata$7       0x004570dc       0x10 /usr/lib/w32api/libwinspool.a(dwbdt.o)
                0x004570dc                __libwinspool_a_iname

.CRT            0x00458000        0x0
                0x00458000                ___crt_xc_start__ = .
 *(SORT(.CRT$XC*))
                0x00458000                ___crt_xc_end__ = .
                0x00458000                ___crt_xi_start__ = .
 *(SORT(.CRT$XI*))
                0x00458000                ___crt_xi_end__ = .
                0x00458000                ___crt_xl_start__ = .
 *(SORT(.CRT$XL*))
                0x00458000                ___crt_xp_start__ = .
 *(SORT(.CRT$XP*))
                0x00458000                ___crt_xp_end__ = .
                0x00458000                ___crt_xt_start__ = .
 *(SORT(.CRT$XT*))
                0x00458000                ___crt_xt_end__ = .

.tls            0x00458000        0x0
                0x00458000                ___tls_start__ = .
 *(.tls)
 *(.tls$)
 *(SORT(.tls$*))
                0x00458000                ___tls_end__ = .

.endjunk        0x00458000        0x0
                0x00458000                PROVIDE (end, .)
                0x00458000                PROVIDE (_end, .)
                0x00458000                __end__ = .

.rsrc           0x00458000     0x3c00
 *(.rsrc)
 .rsrc          0x00458000     0x3b18 puttytel.res.o
 *(SORT(.rsrc$*))

.reloc
 *(.reloc)

.stab
 *(.stab)

.stabstr
 *(.stabstr)

.debug_aranges
 *(.debug_aranges)

.debug_pubnames
 *(.debug_pubnames)

.debug_info
 *(.debug_info)
 *(.gnu.linkonce.wi.*)

.debug_abbrev
 *(.debug_abbrev)

.debug_line
 *(.debug_line)

.debug_frame
 *(.debug_frame)

.debug_str
 *(.debug_str)

.debug_loc
 *(.debug_loc)

.debug_macinfo
 *(.debug_macinfo)

.debug_weaknames
 *(.debug_weaknames)

.debug_funcnames
 *(.debug_funcnames)

.debug_typenames
 *(.debug_typenames)

.debug_varnames
 *(.debug_varnames)

.debug_ranges
 *(.debug_ranges)
OUTPUT(puttytel.exe pei-i386)
